

Microchip MPLAB XC8 Assembler V2.31 build 20201012212115 
                                                                                               Wed Mar 31 20:31:48 2021

Microchip MPLAB XC8 C Compiler v2.31 (Free license) build 20201012212115 Og1 
     1                           	processor	16F18875
     2                           	pagewidth 120
     3                           	opt	flic
     4                           	psect	cinit,global,class=CODE,merge=1,delta=2
     5                           	psect	cstackCOMMON,global,class=COMMON,space=1,delta=1,noexec
     6                           	psect	maintext,global,class=CODE,merge=1,split=1,delta=2
     7                           	psect	text1,local,class=CODE,merge=1,delta=2
     8                           	psect	text2,local,class=CODE,merge=1,delta=2
     9                           	psect	text3,local,class=CODE,merge=1,delta=2
    10                           	psect	text4,local,class=CODE,merge=1,delta=2
    11                           	psect	config,global,abs,ovrld,class=CONFIG,space=4,delta=2,noexec
    12                           	dabs	1,0x7E,2
    13  0000                     
    14                           ; Version 2.20
    15                           ; Generated 30/04/2020 GMT
    16                           ; 
    17                           ; Copyright © 2020, Microchip Technology Inc. and its subsidiaries ("Microchip")
    18                           ; All rights reserved.
    19                           ; 
    20                           ; This software is developed by Microchip Technology Inc. and its subsidiaries ("Microch
      +                          ip").
    21                           ; 
    22                           ; Redistribution and use in source and binary forms, with or without modification, are
    23                           ; permitted provided that the following conditions are met:
    24                           ; 
    25                           ;     1. Redistributions of source code must retain the above copyright notice, this lis
      +                          t of
    26                           ;        conditions and the following disclaimer.
    27                           ; 
    28                           ;     2. Redistributions in binary form must reproduce the above copyright notice, this 
      +                          list
    29                           ;        of conditions and the following disclaimer in the documentation and/or other
    30                           ;        materials provided with the distribution.
    31                           ; 
    32                           ;     3. Microchip's name may not be used to endorse or promote products derived from th
      +                          is
    33                           ;        software without specific prior written permission.
    34                           ; 
    35                           ; THIS SOFTWARE IS PROVIDED BY MICROCHIP "AS IS" AND ANY EXPRESS OR IMPLIED WARRANTIES,
    36                           ; INCLUDING, BUT NOT LIMITED TO, THE IMPLIED WARRANTIES OF MERCHANTABILITY AND FITNESS F
      +                          OR
    37                           ; PURPOSE ARE DISCLAIMED.  IN NO EVENT SHALL MICROCHIP BE LIABLE FOR ANY DIRECT, INDIREC
      +                          T,
    38                           ; INCIDENTAL, SPECIAL, EXEMPLARY, OR CONSEQUENTIAL DAMAGES (INCLUDING BUT NOT LIMITED TO
    39                           ; PROCUREMENT OF SUBSTITUTE GOODS OR SERVICES; LOSS OF USE, DATA OR PROFITS; OR BUSINESS
    40                           ; INTERRUPTION) HOWSOEVER CAUSED AND ON ANY THEORY OF LIABILITY, WHETHER IN CONTRACT, ST
      +                          RICT
    41                           ; LIABILITY, OR TORT (INCLUDING NEGLIGENCE OR OTHERWISE) ARISING IN ANY WAY OUT OF THE U
      +                          SE OF
    42                           ; THIS SOFTWARE, EVEN IF ADVISED OF THE POSSIBILITY OF SUCH DAMAGE.
    43                           ; 
    44                           ; 
    45                           ; Code-generator required, PIC16F18875 Definitions
    46                           ; 
    47                           ; SFR Addresses
    48  0000                     	;# 
    49  0001                     	;# 
    50  0002                     	;# 
    51  0003                     	;# 
    52  0004                     	;# 
    53  0005                     	;# 
    54  0006                     	;# 
    55  0007                     	;# 
    56  0008                     	;# 
    57  0009                     	;# 
    58  000A                     	;# 
    59  000B                     	;# 
    60  000C                     	;# 
    61  000D                     	;# 
    62  000E                     	;# 
    63  000F                     	;# 
    64  0010                     	;# 
    65  0011                     	;# 
    66  0012                     	;# 
    67  0013                     	;# 
    68  0014                     	;# 
    69  0015                     	;# 
    70  0016                     	;# 
    71  0017                     	;# 
    72  0018                     	;# 
    73  0019                     	;# 
    74  001A                     	;# 
    75  001C                     	;# 
    76  001C                     	;# 
    77  001D                     	;# 
    78  001D                     	;# 
    79  001E                     	;# 
    80  001F                     	;# 
    81  008C                     	;# 
    82  008C                     	;# 
    83  008D                     	;# 
    84  008E                     	;# 
    85  008E                     	;# 
    86  008F                     	;# 
    87  0090                     	;# 
    88  0090                     	;# 
    89  0091                     	;# 
    90  0093                     	;# 
    91  0094                     	;# 
    92  0095                     	;# 
    93  0096                     	;# 
    94  0097                     	;# 
    95  0098                     	;# 
    96  0099                     	;# 
    97  009A                     	;# 
    98  009B                     	;# 
    99  009C                     	;# 
   100  009D                     	;# 
   101  009E                     	;# 
   102  010C                     	;# 
   103  010D                     	;# 
   104  010E                     	;# 
   105  010E                     	;# 
   106  010F                     	;# 
   107  0110                     	;# 
   108  0110                     	;# 
   109  0111                     	;# 
   110  0112                     	;# 
   111  0112                     	;# 
   112  0113                     	;# 
   113  0114                     	;# 
   114  0114                     	;# 
   115  0115                     	;# 
   116  0116                     	;# 
   117  0116                     	;# 
   118  0117                     	;# 
   119  0119                     	;# 
   120  0119                     	;# 
   121  0119                     	;# 
   122  011A                     	;# 
   123  011A                     	;# 
   124  011A                     	;# 
   125  011B                     	;# 
   126  011B                     	;# 
   127  011B                     	;# 
   128  011B                     	;# 
   129  011B                     	;# 
   130  011C                     	;# 
   131  011C                     	;# 
   132  011C                     	;# 
   133  011D                     	;# 
   134  011D                     	;# 
   135  011D                     	;# 
   136  011E                     	;# 
   137  011E                     	;# 
   138  011E                     	;# 
   139  011F                     	;# 
   140  011F                     	;# 
   141  011F                     	;# 
   142  011F                     	;# 
   143  011F                     	;# 
   144  018C                     	;# 
   145  018D                     	;# 
   146  018E                     	;# 
   147  018F                     	;# 
   148  0190                     	;# 
   149  0191                     	;# 
   150  0192                     	;# 
   151  0196                     	;# 
   152  0197                     	;# 
   153  0198                     	;# 
   154  0199                     	;# 
   155  019A                     	;# 
   156  019B                     	;# 
   157  019C                     	;# 
   158  020C                     	;# 
   159  020C                     	;# 
   160  020D                     	;# 
   161  020E                     	;# 
   162  020F                     	;# 
   163  020F                     	;# 
   164  0210                     	;# 
   165  0210                     	;# 
   166  0211                     	;# 
   167  0211                     	;# 
   168  0212                     	;# 
   169  0212                     	;# 
   170  0213                     	;# 
   171  0214                     	;# 
   172  0215                     	;# 
   173  0215                     	;# 
   174  0216                     	;# 
   175  0216                     	;# 
   176  0217                     	;# 
   177  0217                     	;# 
   178  0218                     	;# 
   179  0218                     	;# 
   180  0219                     	;# 
   181  021A                     	;# 
   182  021B                     	;# 
   183  021B                     	;# 
   184  021C                     	;# 
   185  021C                     	;# 
   186  021D                     	;# 
   187  021D                     	;# 
   188  021E                     	;# 
   189  021F                     	;# 
   190  028C                     	;# 
   191  028C                     	;# 
   192  028D                     	;# 
   193  028D                     	;# 
   194  028E                     	;# 
   195  028F                     	;# 
   196  0290                     	;# 
   197  0290                     	;# 
   198  0291                     	;# 
   199  0292                     	;# 
   200  0292                     	;# 
   201  0293                     	;# 
   202  0293                     	;# 
   203  0294                     	;# 
   204  0295                     	;# 
   205  0296                     	;# 
   206  0296                     	;# 
   207  0297                     	;# 
   208  0298                     	;# 
   209  0298                     	;# 
   210  0299                     	;# 
   211  0299                     	;# 
   212  029A                     	;# 
   213  029B                     	;# 
   214  029C                     	;# 
   215  029C                     	;# 
   216  029D                     	;# 
   217  030C                     	;# 
   218  030C                     	;# 
   219  030D                     	;# 
   220  030E                     	;# 
   221  030F                     	;# 
   222  0310                     	;# 
   223  0310                     	;# 
   224  0311                     	;# 
   225  0312                     	;# 
   226  0313                     	;# 
   227  0314                     	;# 
   228  0314                     	;# 
   229  0315                     	;# 
   230  0316                     	;# 
   231  0317                     	;# 
   232  0318                     	;# 
   233  0318                     	;# 
   234  0319                     	;# 
   235  031A                     	;# 
   236  031B                     	;# 
   237  031C                     	;# 
   238  031C                     	;# 
   239  031D                     	;# 
   240  031E                     	;# 
   241  031F                     	;# 
   242  038C                     	;# 
   243  038C                     	;# 
   244  038D                     	;# 
   245  038E                     	;# 
   246  0390                     	;# 
   247  0390                     	;# 
   248  0391                     	;# 
   249  0392                     	;# 
   250  040C                     	;# 
   251  040D                     	;# 
   252  040E                     	;# 
   253  040F                     	;# 
   254  0410                     	;# 
   255  0411                     	;# 
   256  0416                     	;# 
   257  0416                     	;# 
   258  0417                     	;# 
   259  0418                     	;# 
   260  0418                     	;# 
   261  0419                     	;# 
   262  041A                     	;# 
   263  041A                     	;# 
   264  041B                     	;# 
   265  041C                     	;# 
   266  041C                     	;# 
   267  041D                     	;# 
   268  041E                     	;# 
   269  041F                     	;# 
   270  048C                     	;# 
   271  048C                     	;# 
   272  048D                     	;# 
   273  048E                     	;# 
   274  048F                     	;# 
   275  048F                     	;# 
   276  0490                     	;# 
   277  0491                     	;# 
   278  0492                     	;# 
   279  0492                     	;# 
   280  0493                     	;# 
   281  0494                     	;# 
   282  0495                     	;# 
   283  0495                     	;# 
   284  0496                     	;# 
   285  0497                     	;# 
   286  0498                     	;# 
   287  0499                     	;# 
   288  049A                     	;# 
   289  049B                     	;# 
   290  049C                     	;# 
   291  049D                     	;# 
   292  050C                     	;# 
   293  050C                     	;# 
   294  050D                     	;# 
   295  050E                     	;# 
   296  050F                     	;# 
   297  050F                     	;# 
   298  0510                     	;# 
   299  0511                     	;# 
   300  0512                     	;# 
   301  0512                     	;# 
   302  0513                     	;# 
   303  0514                     	;# 
   304  0515                     	;# 
   305  0515                     	;# 
   306  0516                     	;# 
   307  0517                     	;# 
   308  0518                     	;# 
   309  0519                     	;# 
   310  051A                     	;# 
   311  051B                     	;# 
   312  051C                     	;# 
   313  051D                     	;# 
   314  058C                     	;# 
   315  058C                     	;# 
   316  058D                     	;# 
   317  058E                     	;# 
   318  058F                     	;# 
   319  058F                     	;# 
   320  0590                     	;# 
   321  0591                     	;# 
   322  0592                     	;# 
   323  0593                     	;# 
   324  060C                     	;# 
   325  060D                     	;# 
   326  060E                     	;# 
   327  060F                     	;# 
   328  0610                     	;# 
   329  0611                     	;# 
   330  0612                     	;# 
   331  0613                     	;# 
   332  0614                     	;# 
   333  0616                     	;# 
   334  0617                     	;# 
   335  0618                     	;# 
   336  0619                     	;# 
   337  061A                     	;# 
   338  061B                     	;# 
   339  061C                     	;# 
   340  061D                     	;# 
   341  061E                     	;# 
   342  068C                     	;# 
   343  068D                     	;# 
   344  068E                     	;# 
   345  068F                     	;# 
   346  0690                     	;# 
   347  0691                     	;# 
   348  0692                     	;# 
   349  0693                     	;# 
   350  0694                     	;# 
   351  070C                     	;# 
   352  070D                     	;# 
   353  070E                     	;# 
   354  070F                     	;# 
   355  0710                     	;# 
   356  0711                     	;# 
   357  0712                     	;# 
   358  0713                     	;# 
   359  0714                     	;# 
   360  0716                     	;# 
   361  0717                     	;# 
   362  0718                     	;# 
   363  0719                     	;# 
   364  071A                     	;# 
   365  071B                     	;# 
   366  071C                     	;# 
   367  071D                     	;# 
   368  071E                     	;# 
   369  0796                     	;# 
   370  0797                     	;# 
   371  0798                     	;# 
   372  0799                     	;# 
   373  079A                     	;# 
   374  079B                     	;# 
   375  080C                     	;# 
   376  080D                     	;# 
   377  080E                     	;# 
   378  080F                     	;# 
   379  0810                     	;# 
   380  0811                     	;# 
   381  0812                     	;# 
   382  0813                     	;# 
   383  0814                     	;# 
   384  081A                     	;# 
   385  081B                     	;# 
   386  081C                     	;# 
   387  081D                     	;# 
   388  081E                     	;# 
   389  081F                     	;# 
   390  088C                     	;# 
   391  088D                     	;# 
   392  088E                     	;# 
   393  088F                     	;# 
   394  0890                     	;# 
   395  0891                     	;# 
   396  0892                     	;# 
   397  0893                     	;# 
   398  0895                     	;# 
   399  0896                     	;# 
   400  0897                     	;# 
   401  0898                     	;# 
   402  0899                     	;# 
   403  089A                     	;# 
   404  089B                     	;# 
   405  090C                     	;# 
   406  090E                     	;# 
   407  090F                     	;# 
   408  091F                     	;# 
   409  091F                     	;# 
   410  098F                     	;# 
   411  098F                     	;# 
   412  0990                     	;# 
   413  0991                     	;# 
   414  0992                     	;# 
   415  0993                     	;# 
   416  0994                     	;# 
   417  0995                     	;# 
   418  0996                     	;# 
   419  0997                     	;# 
   420  0E0F                     	;# 
   421  0E10                     	;# 
   422  0E11                     	;# 
   423  0E12                     	;# 
   424  0E13                     	;# 
   425  0E14                     	;# 
   426  0E15                     	;# 
   427  0E16                     	;# 
   428  0E17                     	;# 
   429  0E18                     	;# 
   430  0E19                     	;# 
   431  0E1A                     	;# 
   432  0E1B                     	;# 
   433  0E1C                     	;# 
   434  0E1D                     	;# 
   435  0E1E                     	;# 
   436  0E1F                     	;# 
   437  0E20                     	;# 
   438  0E21                     	;# 
   439  0E22                     	;# 
   440  0E23                     	;# 
   441  0E24                     	;# 
   442  0E25                     	;# 
   443  0E26                     	;# 
   444  0E27                     	;# 
   445  0E28                     	;# 
   446  0E29                     	;# 
   447  0E2A                     	;# 
   448  0E2B                     	;# 
   449  0E2C                     	;# 
   450  0E2D                     	;# 
   451  0E2E                     	;# 
   452  0E2F                     	;# 
   453  0E30                     	;# 
   454  0E31                     	;# 
   455  0E32                     	;# 
   456  0E33                     	;# 
   457  0E34                     	;# 
   458  0E35                     	;# 
   459  0E36                     	;# 
   460  0E37                     	;# 
   461  0E8F                     	;# 
   462  0E90                     	;# 
   463  0E91                     	;# 
   464  0E92                     	;# 
   465  0E93                     	;# 
   466  0E94                     	;# 
   467  0E95                     	;# 
   468  0E96                     	;# 
   469  0E97                     	;# 
   470  0E9C                     	;# 
   471  0E9D                     	;# 
   472  0E9E                     	;# 
   473  0EA1                     	;# 
   474  0EA2                     	;# 
   475  0EA3                     	;# 
   476  0EA4                     	;# 
   477  0EA5                     	;# 
   478  0EA9                     	;# 
   479  0EAA                     	;# 
   480  0EAB                     	;# 
   481  0EAC                     	;# 
   482  0EB1                     	;# 
   483  0EB2                     	;# 
   484  0EB3                     	;# 
   485  0EB8                     	;# 
   486  0EB9                     	;# 
   487  0EBA                     	;# 
   488  0EBB                     	;# 
   489  0EBC                     	;# 
   490  0EBD                     	;# 
   491  0EBE                     	;# 
   492  0EC3                     	;# 
   493  0EC5                     	;# 
   494  0EC6                     	;# 
   495  0EC7                     	;# 
   496  0EC8                     	;# 
   497  0EC9                     	;# 
   498  0ECA                     	;# 
   499  0ECB                     	;# 
   500  0ECC                     	;# 
   501  0F10                     	;# 
   502  0F11                     	;# 
   503  0F12                     	;# 
   504  0F13                     	;# 
   505  0F14                     	;# 
   506  0F15                     	;# 
   507  0F16                     	;# 
   508  0F17                     	;# 
   509  0F18                     	;# 
   510  0F19                     	;# 
   511  0F1A                     	;# 
   512  0F1B                     	;# 
   513  0F1C                     	;# 
   514  0F1D                     	;# 
   515  0F1E                     	;# 
   516  0F1F                     	;# 
   517  0F20                     	;# 
   518  0F21                     	;# 
   519  0F22                     	;# 
   520  0F23                     	;# 
   521  0F24                     	;# 
   522  0F25                     	;# 
   523  0F26                     	;# 
   524  0F27                     	;# 
   525  0F28                     	;# 
   526  0F29                     	;# 
   527  0F2A                     	;# 
   528  0F2B                     	;# 
   529  0F2C                     	;# 
   530  0F2D                     	;# 
   531  0F2E                     	;# 
   532  0F2F                     	;# 
   533  0F30                     	;# 
   534  0F31                     	;# 
   535  0F32                     	;# 
   536  0F38                     	;# 
   537  0F39                     	;# 
   538  0F3A                     	;# 
   539  0F3B                     	;# 
   540  0F3C                     	;# 
   541  0F3D                     	;# 
   542  0F3E                     	;# 
   543  0F3F                     	;# 
   544  0F40                     	;# 
   545  0F41                     	;# 
   546  0F43                     	;# 
   547  0F44                     	;# 
   548  0F45                     	;# 
   549  0F46                     	;# 
   550  0F47                     	;# 
   551  0F48                     	;# 
   552  0F49                     	;# 
   553  0F4A                     	;# 
   554  0F4B                     	;# 
   555  0F4C                     	;# 
   556  0F4E                     	;# 
   557  0F4F                     	;# 
   558  0F50                     	;# 
   559  0F51                     	;# 
   560  0F52                     	;# 
   561  0F53                     	;# 
   562  0F54                     	;# 
   563  0F55                     	;# 
   564  0F56                     	;# 
   565  0F57                     	;# 
   566  0F59                     	;# 
   567  0F5A                     	;# 
   568  0F5B                     	;# 
   569  0F5C                     	;# 
   570  0F5D                     	;# 
   571  0F61                     	;# 
   572  0F62                     	;# 
   573  0F64                     	;# 
   574  0F65                     	;# 
   575  0F66                     	;# 
   576  0F67                     	;# 
   577  0F68                     	;# 
   578  0F69                     	;# 
   579  0F6A                     	;# 
   580  0F6B                     	;# 
   581  0F6C                     	;# 
   582  0F6D                     	;# 
   583  0FE4                     	;# 
   584  0FE5                     	;# 
   585  0FE6                     	;# 
   586  0FE7                     	;# 
   587  0FE8                     	;# 
   588  0FE9                     	;# 
   589  0FEA                     	;# 
   590  0FEB                     	;# 
   591  0FED                     	;# 
   592  0FEE                     	;# 
   593  0FEF                     	;# 
   594  0000                     	;# 
   595  0001                     	;# 
   596  0002                     	;# 
   597  0003                     	;# 
   598  0004                     	;# 
   599  0005                     	;# 
   600  0006                     	;# 
   601  0007                     	;# 
   602  0008                     	;# 
   603  0009                     	;# 
   604  000A                     	;# 
   605  000B                     	;# 
   606  000C                     	;# 
   607  000D                     	;# 
   608  000E                     	;# 
   609  000F                     	;# 
   610  0010                     	;# 
   611  0011                     	;# 
   612  0012                     	;# 
   613  0013                     	;# 
   614  0014                     	;# 
   615  0015                     	;# 
   616  0016                     	;# 
   617  0017                     	;# 
   618  0018                     	;# 
   619  0019                     	;# 
   620  001A                     	;# 
   621  001C                     	;# 
   622  001C                     	;# 
   623  001D                     	;# 
   624  001D                     	;# 
   625  001E                     	;# 
   626  001F                     	;# 
   627  008C                     	;# 
   628  008C                     	;# 
   629  008D                     	;# 
   630  008E                     	;# 
   631  008E                     	;# 
   632  008F                     	;# 
   633  0090                     	;# 
   634  0090                     	;# 
   635  0091                     	;# 
   636  0093                     	;# 
   637  0094                     	;# 
   638  0095                     	;# 
   639  0096                     	;# 
   640  0097                     	;# 
   641  0098                     	;# 
   642  0099                     	;# 
   643  009A                     	;# 
   644  009B                     	;# 
   645  009C                     	;# 
   646  009D                     	;# 
   647  009E                     	;# 
   648  010C                     	;# 
   649  010D                     	;# 
   650  010E                     	;# 
   651  010E                     	;# 
   652  010F                     	;# 
   653  0110                     	;# 
   654  0110                     	;# 
   655  0111                     	;# 
   656  0112                     	;# 
   657  0112                     	;# 
   658  0113                     	;# 
   659  0114                     	;# 
   660  0114                     	;# 
   661  0115                     	;# 
   662  0116                     	;# 
   663  0116                     	;# 
   664  0117                     	;# 
   665  0119                     	;# 
   666  0119                     	;# 
   667  0119                     	;# 
   668  011A                     	;# 
   669  011A                     	;# 
   670  011A                     	;# 
   671  011B                     	;# 
   672  011B                     	;# 
   673  011B                     	;# 
   674  011B                     	;# 
   675  011B                     	;# 
   676  011C                     	;# 
   677  011C                     	;# 
   678  011C                     	;# 
   679  011D                     	;# 
   680  011D                     	;# 
   681  011D                     	;# 
   682  011E                     	;# 
   683  011E                     	;# 
   684  011E                     	;# 
   685  011F                     	;# 
   686  011F                     	;# 
   687  011F                     	;# 
   688  011F                     	;# 
   689  011F                     	;# 
   690  018C                     	;# 
   691  018D                     	;# 
   692  018E                     	;# 
   693  018F                     	;# 
   694  0190                     	;# 
   695  0191                     	;# 
   696  0192                     	;# 
   697  0196                     	;# 
   698  0197                     	;# 
   699  0198                     	;# 
   700  0199                     	;# 
   701  019A                     	;# 
   702  019B                     	;# 
   703  019C                     	;# 
   704  020C                     	;# 
   705  020C                     	;# 
   706  020D                     	;# 
   707  020E                     	;# 
   708  020F                     	;# 
   709  020F                     	;# 
   710  0210                     	;# 
   711  0210                     	;# 
   712  0211                     	;# 
   713  0211                     	;# 
   714  0212                     	;# 
   715  0212                     	;# 
   716  0213                     	;# 
   717  0214                     	;# 
   718  0215                     	;# 
   719  0215                     	;# 
   720  0216                     	;# 
   721  0216                     	;# 
   722  0217                     	;# 
   723  0217                     	;# 
   724  0218                     	;# 
   725  0218                     	;# 
   726  0219                     	;# 
   727  021A                     	;# 
   728  021B                     	;# 
   729  021B                     	;# 
   730  021C                     	;# 
   731  021C                     	;# 
   732  021D                     	;# 
   733  021D                     	;# 
   734  021E                     	;# 
   735  021F                     	;# 
   736  028C                     	;# 
   737  028C                     	;# 
   738  028D                     	;# 
   739  028D                     	;# 
   740  028E                     	;# 
   741  028F                     	;# 
   742  0290                     	;# 
   743  0290                     	;# 
   744  0291                     	;# 
   745  0292                     	;# 
   746  0292                     	;# 
   747  0293                     	;# 
   748  0293                     	;# 
   749  0294                     	;# 
   750  0295                     	;# 
   751  0296                     	;# 
   752  0296                     	;# 
   753  0297                     	;# 
   754  0298                     	;# 
   755  0298                     	;# 
   756  0299                     	;# 
   757  0299                     	;# 
   758  029A                     	;# 
   759  029B                     	;# 
   760  029C                     	;# 
   761  029C                     	;# 
   762  029D                     	;# 
   763  030C                     	;# 
   764  030C                     	;# 
   765  030D                     	;# 
   766  030E                     	;# 
   767  030F                     	;# 
   768  0310                     	;# 
   769  0310                     	;# 
   770  0311                     	;# 
   771  0312                     	;# 
   772  0313                     	;# 
   773  0314                     	;# 
   774  0314                     	;# 
   775  0315                     	;# 
   776  0316                     	;# 
   777  0317                     	;# 
   778  0318                     	;# 
   779  0318                     	;# 
   780  0319                     	;# 
   781  031A                     	;# 
   782  031B                     	;# 
   783  031C                     	;# 
   784  031C                     	;# 
   785  031D                     	;# 
   786  031E                     	;# 
   787  031F                     	;# 
   788  038C                     	;# 
   789  038C                     	;# 
   790  038D                     	;# 
   791  038E                     	;# 
   792  0390                     	;# 
   793  0390                     	;# 
   794  0391                     	;# 
   795  0392                     	;# 
   796  040C                     	;# 
   797  040D                     	;# 
   798  040E                     	;# 
   799  040F                     	;# 
   800  0410                     	;# 
   801  0411                     	;# 
   802  0416                     	;# 
   803  0416                     	;# 
   804  0417                     	;# 
   805  0418                     	;# 
   806  0418                     	;# 
   807  0419                     	;# 
   808  041A                     	;# 
   809  041A                     	;# 
   810  041B                     	;# 
   811  041C                     	;# 
   812  041C                     	;# 
   813  041D                     	;# 
   814  041E                     	;# 
   815  041F                     	;# 
   816  048C                     	;# 
   817  048C                     	;# 
   818  048D                     	;# 
   819  048E                     	;# 
   820  048F                     	;# 
   821  048F                     	;# 
   822  0490                     	;# 
   823  0491                     	;# 
   824  0492                     	;# 
   825  0492                     	;# 
   826  0493                     	;# 
   827  0494                     	;# 
   828  0495                     	;# 
   829  0495                     	;# 
   830  0496                     	;# 
   831  0497                     	;# 
   832  0498                     	;# 
   833  0499                     	;# 
   834  049A                     	;# 
   835  049B                     	;# 
   836  049C                     	;# 
   837  049D                     	;# 
   838  050C                     	;# 
   839  050C                     	;# 
   840  050D                     	;# 
   841  050E                     	;# 
   842  050F                     	;# 
   843  050F                     	;# 
   844  0510                     	;# 
   845  0511                     	;# 
   846  0512                     	;# 
   847  0512                     	;# 
   848  0513                     	;# 
   849  0514                     	;# 
   850  0515                     	;# 
   851  0515                     	;# 
   852  0516                     	;# 
   853  0517                     	;# 
   854  0518                     	;# 
   855  0519                     	;# 
   856  051A                     	;# 
   857  051B                     	;# 
   858  051C                     	;# 
   859  051D                     	;# 
   860  058C                     	;# 
   861  058C                     	;# 
   862  058D                     	;# 
   863  058E                     	;# 
   864  058F                     	;# 
   865  058F                     	;# 
   866  0590                     	;# 
   867  0591                     	;# 
   868  0592                     	;# 
   869  0593                     	;# 
   870  060C                     	;# 
   871  060D                     	;# 
   872  060E                     	;# 
   873  060F                     	;# 
   874  0610                     	;# 
   875  0611                     	;# 
   876  0612                     	;# 
   877  0613                     	;# 
   878  0614                     	;# 
   879  0616                     	;# 
   880  0617                     	;# 
   881  0618                     	;# 
   882  0619                     	;# 
   883  061A                     	;# 
   884  061B                     	;# 
   885  061C                     	;# 
   886  061D                     	;# 
   887  061E                     	;# 
   888  068C                     	;# 
   889  068D                     	;# 
   890  068E                     	;# 
   891  068F                     	;# 
   892  0690                     	;# 
   893  0691                     	;# 
   894  0692                     	;# 
   895  0693                     	;# 
   896  0694                     	;# 
   897  070C                     	;# 
   898  070D                     	;# 
   899  070E                     	;# 
   900  070F                     	;# 
   901  0710                     	;# 
   902  0711                     	;# 
   903  0712                     	;# 
   904  0713                     	;# 
   905  0714                     	;# 
   906  0716                     	;# 
   907  0717                     	;# 
   908  0718                     	;# 
   909  0719                     	;# 
   910  071A                     	;# 
   911  071B                     	;# 
   912  071C                     	;# 
   913  071D                     	;# 
   914  071E                     	;# 
   915  0796                     	;# 
   916  0797                     	;# 
   917  0798                     	;# 
   918  0799                     	;# 
   919  079A                     	;# 
   920  079B                     	;# 
   921  080C                     	;# 
   922  080D                     	;# 
   923  080E                     	;# 
   924  080F                     	;# 
   925  0810                     	;# 
   926  0811                     	;# 
   927  0812                     	;# 
   928  0813                     	;# 
   929  0814                     	;# 
   930  081A                     	;# 
   931  081B                     	;# 
   932  081C                     	;# 
   933  081D                     	;# 
   934  081E                     	;# 
   935  081F                     	;# 
   936  088C                     	;# 
   937  088D                     	;# 
   938  088E                     	;# 
   939  088F                     	;# 
   940  0890                     	;# 
   941  0891                     	;# 
   942  0892                     	;# 
   943  0893                     	;# 
   944  0895                     	;# 
   945  0896                     	;# 
   946  0897                     	;# 
   947  0898                     	;# 
   948  0899                     	;# 
   949  089A                     	;# 
   950  089B                     	;# 
   951  090C                     	;# 
   952  090E                     	;# 
   953  090F                     	;# 
   954  091F                     	;# 
   955  091F                     	;# 
   956  098F                     	;# 
   957  098F                     	;# 
   958  0990                     	;# 
   959  0991                     	;# 
   960  0992                     	;# 
   961  0993                     	;# 
   962  0994                     	;# 
   963  0995                     	;# 
   964  0996                     	;# 
   965  0997                     	;# 
   966  0E0F                     	;# 
   967  0E10                     	;# 
   968  0E11                     	;# 
   969  0E12                     	;# 
   970  0E13                     	;# 
   971  0E14                     	;# 
   972  0E15                     	;# 
   973  0E16                     	;# 
   974  0E17                     	;# 
   975  0E18                     	;# 
   976  0E19                     	;# 
   977  0E1A                     	;# 
   978  0E1B                     	;# 
   979  0E1C                     	;# 
   980  0E1D                     	;# 
   981  0E1E                     	;# 
   982  0E1F                     	;# 
   983  0E20                     	;# 
   984  0E21                     	;# 
   985  0E22                     	;# 
   986  0E23                     	;# 
   987  0E24                     	;# 
   988  0E25                     	;# 
   989  0E26                     	;# 
   990  0E27                     	;# 
   991  0E28                     	;# 
   992  0E29                     	;# 
   993  0E2A                     	;# 
   994  0E2B                     	;# 
   995  0E2C                     	;# 
   996  0E2D                     	;# 
   997  0E2E                     	;# 
   998  0E2F                     	;# 
   999  0E30                     	;# 
  1000  0E31                     	;# 
  1001  0E32                     	;# 
  1002  0E33                     	;# 
  1003  0E34                     	;# 
  1004  0E35                     	;# 
  1005  0E36                     	;# 
  1006  0E37                     	;# 
  1007  0E8F                     	;# 
  1008  0E90                     	;# 
  1009  0E91                     	;# 
  1010  0E92                     	;# 
  1011  0E93                     	;# 
  1012  0E94                     	;# 
  1013  0E95                     	;# 
  1014  0E96                     	;# 
  1015  0E97                     	;# 
  1016  0E9C                     	;# 
  1017  0E9D                     	;# 
  1018  0E9E                     	;# 
  1019  0EA1                     	;# 
  1020  0EA2                     	;# 
  1021  0EA3                     	;# 
  1022  0EA4                     	;# 
  1023  0EA5                     	;# 
  1024  0EA9                     	;# 
  1025  0EAA                     	;# 
  1026  0EAB                     	;# 
  1027  0EAC                     	;# 
  1028  0EB1                     	;# 
  1029  0EB2                     	;# 
  1030  0EB3                     	;# 
  1031  0EB8                     	;# 
  1032  0EB9                     	;# 
  1033  0EBA                     	;# 
  1034  0EBB                     	;# 
  1035  0EBC                     	;# 
  1036  0EBD                     	;# 
  1037  0EBE                     	;# 
  1038  0EC3                     	;# 
  1039  0EC5                     	;# 
  1040  0EC6                     	;# 
  1041  0EC7                     	;# 
  1042  0EC8                     	;# 
  1043  0EC9                     	;# 
  1044  0ECA                     	;# 
  1045  0ECB                     	;# 
  1046  0ECC                     	;# 
  1047  0F10                     	;# 
  1048  0F11                     	;# 
  1049  0F12                     	;# 
  1050  0F13                     	;# 
  1051  0F14                     	;# 
  1052  0F15                     	;# 
  1053  0F16                     	;# 
  1054  0F17                     	;# 
  1055  0F18                     	;# 
  1056  0F19                     	;# 
  1057  0F1A                     	;# 
  1058  0F1B                     	;# 
  1059  0F1C                     	;# 
  1060  0F1D                     	;# 
  1061  0F1E                     	;# 
  1062  0F1F                     	;# 
  1063  0F20                     	;# 
  1064  0F21                     	;# 
  1065  0F22                     	;# 
  1066  0F23                     	;# 
  1067  0F24                     	;# 
  1068  0F25                     	;# 
  1069  0F26                     	;# 
  1070  0F27                     	;# 
  1071  0F28                     	;# 
  1072  0F29                     	;# 
  1073  0F2A                     	;# 
  1074  0F2B                     	;# 
  1075  0F2C                     	;# 
  1076  0F2D                     	;# 
  1077  0F2E                     	;# 
  1078  0F2F                     	;# 
  1079  0F30                     	;# 
  1080  0F31                     	;# 
  1081  0F32                     	;# 
  1082  0F38                     	;# 
  1083  0F39                     	;# 
  1084  0F3A                     	;# 
  1085  0F3B                     	;# 
  1086  0F3C                     	;# 
  1087  0F3D                     	;# 
  1088  0F3E                     	;# 
  1089  0F3F                     	;# 
  1090  0F40                     	;# 
  1091  0F41                     	;# 
  1092  0F43                     	;# 
  1093  0F44                     	;# 
  1094  0F45                     	;# 
  1095  0F46                     	;# 
  1096  0F47                     	;# 
  1097  0F48                     	;# 
  1098  0F49                     	;# 
  1099  0F4A                     	;# 
  1100  0F4B                     	;# 
  1101  0F4C                     	;# 
  1102  0F4E                     	;# 
  1103  0F4F                     	;# 
  1104  0F50                     	;# 
  1105  0F51                     	;# 
  1106  0F52                     	;# 
  1107  0F53                     	;# 
  1108  0F54                     	;# 
  1109  0F55                     	;# 
  1110  0F56                     	;# 
  1111  0F57                     	;# 
  1112  0F59                     	;# 
  1113  0F5A                     	;# 
  1114  0F5B                     	;# 
  1115  0F5C                     	;# 
  1116  0F5D                     	;# 
  1117  0F61                     	;# 
  1118  0F62                     	;# 
  1119  0F64                     	;# 
  1120  0F65                     	;# 
  1121  0F66                     	;# 
  1122  0F67                     	;# 
  1123  0F68                     	;# 
  1124  0F69                     	;# 
  1125  0F6A                     	;# 
  1126  0F6B                     	;# 
  1127  0F6C                     	;# 
  1128  0F6D                     	;# 
  1129  0FE4                     	;# 
  1130  0FE5                     	;# 
  1131  0FE6                     	;# 
  1132  0FE7                     	;# 
  1133  0FE8                     	;# 
  1134  0FE9                     	;# 
  1135  0FEA                     	;# 
  1136  0FEB                     	;# 
  1137  0FED                     	;# 
  1138  0FEE                     	;# 
  1139  0FEF                     	;# 
  1140  0000                     	;# 
  1141  0001                     	;# 
  1142  0002                     	;# 
  1143  0003                     	;# 
  1144  0004                     	;# 
  1145  0005                     	;# 
  1146  0006                     	;# 
  1147  0007                     	;# 
  1148  0008                     	;# 
  1149  0009                     	;# 
  1150  000A                     	;# 
  1151  000B                     	;# 
  1152  000C                     	;# 
  1153  000D                     	;# 
  1154  000E                     	;# 
  1155  000F                     	;# 
  1156  0010                     	;# 
  1157  0011                     	;# 
  1158  0012                     	;# 
  1159  0013                     	;# 
  1160  0014                     	;# 
  1161  0015                     	;# 
  1162  0016                     	;# 
  1163  0017                     	;# 
  1164  0018                     	;# 
  1165  0019                     	;# 
  1166  001A                     	;# 
  1167  001C                     	;# 
  1168  001C                     	;# 
  1169  001D                     	;# 
  1170  001D                     	;# 
  1171  001E                     	;# 
  1172  001F                     	;# 
  1173  008C                     	;# 
  1174  008C                     	;# 
  1175  008D                     	;# 
  1176  008E                     	;# 
  1177  008E                     	;# 
  1178  008F                     	;# 
  1179  0090                     	;# 
  1180  0090                     	;# 
  1181  0091                     	;# 
  1182  0093                     	;# 
  1183  0094                     	;# 
  1184  0095                     	;# 
  1185  0096                     	;# 
  1186  0097                     	;# 
  1187  0098                     	;# 
  1188  0099                     	;# 
  1189  009A                     	;# 
  1190  009B                     	;# 
  1191  009C                     	;# 
  1192  009D                     	;# 
  1193  009E                     	;# 
  1194  010C                     	;# 
  1195  010D                     	;# 
  1196  010E                     	;# 
  1197  010E                     	;# 
  1198  010F                     	;# 
  1199  0110                     	;# 
  1200  0110                     	;# 
  1201  0111                     	;# 
  1202  0112                     	;# 
  1203  0112                     	;# 
  1204  0113                     	;# 
  1205  0114                     	;# 
  1206  0114                     	;# 
  1207  0115                     	;# 
  1208  0116                     	;# 
  1209  0116                     	;# 
  1210  0117                     	;# 
  1211  0119                     	;# 
  1212  0119                     	;# 
  1213  0119                     	;# 
  1214  011A                     	;# 
  1215  011A                     	;# 
  1216  011A                     	;# 
  1217  011B                     	;# 
  1218  011B                     	;# 
  1219  011B                     	;# 
  1220  011B                     	;# 
  1221  011B                     	;# 
  1222  011C                     	;# 
  1223  011C                     	;# 
  1224  011C                     	;# 
  1225  011D                     	;# 
  1226  011D                     	;# 
  1227  011D                     	;# 
  1228  011E                     	;# 
  1229  011E                     	;# 
  1230  011E                     	;# 
  1231  011F                     	;# 
  1232  011F                     	;# 
  1233  011F                     	;# 
  1234  011F                     	;# 
  1235  011F                     	;# 
  1236  018C                     	;# 
  1237  018D                     	;# 
  1238  018E                     	;# 
  1239  018F                     	;# 
  1240  0190                     	;# 
  1241  0191                     	;# 
  1242  0192                     	;# 
  1243  0196                     	;# 
  1244  0197                     	;# 
  1245  0198                     	;# 
  1246  0199                     	;# 
  1247  019A                     	;# 
  1248  019B                     	;# 
  1249  019C                     	;# 
  1250  020C                     	;# 
  1251  020C                     	;# 
  1252  020D                     	;# 
  1253  020E                     	;# 
  1254  020F                     	;# 
  1255  020F                     	;# 
  1256  0210                     	;# 
  1257  0210                     	;# 
  1258  0211                     	;# 
  1259  0211                     	;# 
  1260  0212                     	;# 
  1261  0212                     	;# 
  1262  0213                     	;# 
  1263  0214                     	;# 
  1264  0215                     	;# 
  1265  0215                     	;# 
  1266  0216                     	;# 
  1267  0216                     	;# 
  1268  0217                     	;# 
  1269  0217                     	;# 
  1270  0218                     	;# 
  1271  0218                     	;# 
  1272  0219                     	;# 
  1273  021A                     	;# 
  1274  021B                     	;# 
  1275  021B                     	;# 
  1276  021C                     	;# 
  1277  021C                     	;# 
  1278  021D                     	;# 
  1279  021D                     	;# 
  1280  021E                     	;# 
  1281  021F                     	;# 
  1282  028C                     	;# 
  1283  028C                     	;# 
  1284  028D                     	;# 
  1285  028D                     	;# 
  1286  028E                     	;# 
  1287  028F                     	;# 
  1288  0290                     	;# 
  1289  0290                     	;# 
  1290  0291                     	;# 
  1291  0292                     	;# 
  1292  0292                     	;# 
  1293  0293                     	;# 
  1294  0293                     	;# 
  1295  0294                     	;# 
  1296  0295                     	;# 
  1297  0296                     	;# 
  1298  0296                     	;# 
  1299  0297                     	;# 
  1300  0298                     	;# 
  1301  0298                     	;# 
  1302  0299                     	;# 
  1303  0299                     	;# 
  1304  029A                     	;# 
  1305  029B                     	;# 
  1306  029C                     	;# 
  1307  029C                     	;# 
  1308  029D                     	;# 
  1309  030C                     	;# 
  1310  030C                     	;# 
  1311  030D                     	;# 
  1312  030E                     	;# 
  1313  030F                     	;# 
  1314  0310                     	;# 
  1315  0310                     	;# 
  1316  0311                     	;# 
  1317  0312                     	;# 
  1318  0313                     	;# 
  1319  0314                     	;# 
  1320  0314                     	;# 
  1321  0315                     	;# 
  1322  0316                     	;# 
  1323  0317                     	;# 
  1324  0318                     	;# 
  1325  0318                     	;# 
  1326  0319                     	;# 
  1327  031A                     	;# 
  1328  031B                     	;# 
  1329  031C                     	;# 
  1330  031C                     	;# 
  1331  031D                     	;# 
  1332  031E                     	;# 
  1333  031F                     	;# 
  1334  038C                     	;# 
  1335  038C                     	;# 
  1336  038D                     	;# 
  1337  038E                     	;# 
  1338  0390                     	;# 
  1339  0390                     	;# 
  1340  0391                     	;# 
  1341  0392                     	;# 
  1342  040C                     	;# 
  1343  040D                     	;# 
  1344  040E                     	;# 
  1345  040F                     	;# 
  1346  0410                     	;# 
  1347  0411                     	;# 
  1348  0416                     	;# 
  1349  0416                     	;# 
  1350  0417                     	;# 
  1351  0418                     	;# 
  1352  0418                     	;# 
  1353  0419                     	;# 
  1354  041A                     	;# 
  1355  041A                     	;# 
  1356  041B                     	;# 
  1357  041C                     	;# 
  1358  041C                     	;# 
  1359  041D                     	;# 
  1360  041E                     	;# 
  1361  041F                     	;# 
  1362  048C                     	;# 
  1363  048C                     	;# 
  1364  048D                     	;# 
  1365  048E                     	;# 
  1366  048F                     	;# 
  1367  048F                     	;# 
  1368  0490                     	;# 
  1369  0491                     	;# 
  1370  0492                     	;# 
  1371  0492                     	;# 
  1372  0493                     	;# 
  1373  0494                     	;# 
  1374  0495                     	;# 
  1375  0495                     	;# 
  1376  0496                     	;# 
  1377  0497                     	;# 
  1378  0498                     	;# 
  1379  0499                     	;# 
  1380  049A                     	;# 
  1381  049B                     	;# 
  1382  049C                     	;# 
  1383  049D                     	;# 
  1384  050C                     	;# 
  1385  050C                     	;# 
  1386  050D                     	;# 
  1387  050E                     	;# 
  1388  050F                     	;# 
  1389  050F                     	;# 
  1390  0510                     	;# 
  1391  0511                     	;# 
  1392  0512                     	;# 
  1393  0512                     	;# 
  1394  0513                     	;# 
  1395  0514                     	;# 
  1396  0515                     	;# 
  1397  0515                     	;# 
  1398  0516                     	;# 
  1399  0517                     	;# 
  1400  0518                     	;# 
  1401  0519                     	;# 
  1402  051A                     	;# 
  1403  051B                     	;# 
  1404  051C                     	;# 
  1405  051D                     	;# 
  1406  058C                     	;# 
  1407  058C                     	;# 
  1408  058D                     	;# 
  1409  058E                     	;# 
  1410  058F                     	;# 
  1411  058F                     	;# 
  1412  0590                     	;# 
  1413  0591                     	;# 
  1414  0592                     	;# 
  1415  0593                     	;# 
  1416  060C                     	;# 
  1417  060D                     	;# 
  1418  060E                     	;# 
  1419  060F                     	;# 
  1420  0610                     	;# 
  1421  0611                     	;# 
  1422  0612                     	;# 
  1423  0613                     	;# 
  1424  0614                     	;# 
  1425  0616                     	;# 
  1426  0617                     	;# 
  1427  0618                     	;# 
  1428  0619                     	;# 
  1429  061A                     	;# 
  1430  061B                     	;# 
  1431  061C                     	;# 
  1432  061D                     	;# 
  1433  061E                     	;# 
  1434  068C                     	;# 
  1435  068D                     	;# 
  1436  068E                     	;# 
  1437  068F                     	;# 
  1438  0690                     	;# 
  1439  0691                     	;# 
  1440  0692                     	;# 
  1441  0693                     	;# 
  1442  0694                     	;# 
  1443  070C                     	;# 
  1444  070D                     	;# 
  1445  070E                     	;# 
  1446  070F                     	;# 
  1447  0710                     	;# 
  1448  0711                     	;# 
  1449  0712                     	;# 
  1450  0713                     	;# 
  1451  0714                     	;# 
  1452  0716                     	;# 
  1453  0717                     	;# 
  1454  0718                     	;# 
  1455  0719                     	;# 
  1456  071A                     	;# 
  1457  071B                     	;# 
  1458  071C                     	;# 
  1459  071D                     	;# 
  1460  071E                     	;# 
  1461  0796                     	;# 
  1462  0797                     	;# 
  1463  0798                     	;# 
  1464  0799                     	;# 
  1465  079A                     	;# 
  1466  079B                     	;# 
  1467  080C                     	;# 
  1468  080D                     	;# 
  1469  080E                     	;# 
  1470  080F                     	;# 
  1471  0810                     	;# 
  1472  0811                     	;# 
  1473  0812                     	;# 
  1474  0813                     	;# 
  1475  0814                     	;# 
  1476  081A                     	;# 
  1477  081B                     	;# 
  1478  081C                     	;# 
  1479  081D                     	;# 
  1480  081E                     	;# 
  1481  081F                     	;# 
  1482  088C                     	;# 
  1483  088D                     	;# 
  1484  088E                     	;# 
  1485  088F                     	;# 
  1486  0890                     	;# 
  1487  0891                     	;# 
  1488  0892                     	;# 
  1489  0893                     	;# 
  1490  0895                     	;# 
  1491  0896                     	;# 
  1492  0897                     	;# 
  1493  0898                     	;# 
  1494  0899                     	;# 
  1495  089A                     	;# 
  1496  089B                     	;# 
  1497  090C                     	;# 
  1498  090E                     	;# 
  1499  090F                     	;# 
  1500  091F                     	;# 
  1501  091F                     	;# 
  1502  098F                     	;# 
  1503  098F                     	;# 
  1504  0990                     	;# 
  1505  0991                     	;# 
  1506  0992                     	;# 
  1507  0993                     	;# 
  1508  0994                     	;# 
  1509  0995                     	;# 
  1510  0996                     	;# 
  1511  0997                     	;# 
  1512  0E0F                     	;# 
  1513  0E10                     	;# 
  1514  0E11                     	;# 
  1515  0E12                     	;# 
  1516  0E13                     	;# 
  1517  0E14                     	;# 
  1518  0E15                     	;# 
  1519  0E16                     	;# 
  1520  0E17                     	;# 
  1521  0E18                     	;# 
  1522  0E19                     	;# 
  1523  0E1A                     	;# 
  1524  0E1B                     	;# 
  1525  0E1C                     	;# 
  1526  0E1D                     	;# 
  1527  0E1E                     	;# 
  1528  0E1F                     	;# 
  1529  0E20                     	;# 
  1530  0E21                     	;# 
  1531  0E22                     	;# 
  1532  0E23                     	;# 
  1533  0E24                     	;# 
  1534  0E25                     	;# 
  1535  0E26                     	;# 
  1536  0E27                     	;# 
  1537  0E28                     	;# 
  1538  0E29                     	;# 
  1539  0E2A                     	;# 
  1540  0E2B                     	;# 
  1541  0E2C                     	;# 
  1542  0E2D                     	;# 
  1543  0E2E                     	;# 
  1544  0E2F                     	;# 
  1545  0E30                     	;# 
  1546  0E31                     	;# 
  1547  0E32                     	;# 
  1548  0E33                     	;# 
  1549  0E34                     	;# 
  1550  0E35                     	;# 
  1551  0E36                     	;# 
  1552  0E37                     	;# 
  1553  0E8F                     	;# 
  1554  0E90                     	;# 
  1555  0E91                     	;# 
  1556  0E92                     	;# 
  1557  0E93                     	;# 
  1558  0E94                     	;# 
  1559  0E95                     	;# 
  1560  0E96                     	;# 
  1561  0E97                     	;# 
  1562  0E9C                     	;# 
  1563  0E9D                     	;# 
  1564  0E9E                     	;# 
  1565  0EA1                     	;# 
  1566  0EA2                     	;# 
  1567  0EA3                     	;# 
  1568  0EA4                     	;# 
  1569  0EA5                     	;# 
  1570  0EA9                     	;# 
  1571  0EAA                     	;# 
  1572  0EAB                     	;# 
  1573  0EAC                     	;# 
  1574  0EB1                     	;# 
  1575  0EB2                     	;# 
  1576  0EB3                     	;# 
  1577  0EB8                     	;# 
  1578  0EB9                     	;# 
  1579  0EBA                     	;# 
  1580  0EBB                     	;# 
  1581  0EBC                     	;# 
  1582  0EBD                     	;# 
  1583  0EBE                     	;# 
  1584  0EC3                     	;# 
  1585  0EC5                     	;# 
  1586  0EC6                     	;# 
  1587  0EC7                     	;# 
  1588  0EC8                     	;# 
  1589  0EC9                     	;# 
  1590  0ECA                     	;# 
  1591  0ECB                     	;# 
  1592  0ECC                     	;# 
  1593  0F10                     	;# 
  1594  0F11                     	;# 
  1595  0F12                     	;# 
  1596  0F13                     	;# 
  1597  0F14                     	;# 
  1598  0F15                     	;# 
  1599  0F16                     	;# 
  1600  0F17                     	;# 
  1601  0F18                     	;# 
  1602  0F19                     	;# 
  1603  0F1A                     	;# 
  1604  0F1B                     	;# 
  1605  0F1C                     	;# 
  1606  0F1D                     	;# 
  1607  0F1E                     	;# 
  1608  0F1F                     	;# 
  1609  0F20                     	;# 
  1610  0F21                     	;# 
  1611  0F22                     	;# 
  1612  0F23                     	;# 
  1613  0F24                     	;# 
  1614  0F25                     	;# 
  1615  0F26                     	;# 
  1616  0F27                     	;# 
  1617  0F28                     	;# 
  1618  0F29                     	;# 
  1619  0F2A                     	;# 
  1620  0F2B                     	;# 
  1621  0F2C                     	;# 
  1622  0F2D                     	;# 
  1623  0F2E                     	;# 
  1624  0F2F                     	;# 
  1625  0F30                     	;# 
  1626  0F31                     	;# 
  1627  0F32                     	;# 
  1628  0F38                     	;# 
  1629  0F39                     	;# 
  1630  0F3A                     	;# 
  1631  0F3B                     	;# 
  1632  0F3C                     	;# 
  1633  0F3D                     	;# 
  1634  0F3E                     	;# 
  1635  0F3F                     	;# 
  1636  0F40                     	;# 
  1637  0F41                     	;# 
  1638  0F43                     	;# 
  1639  0F44                     	;# 
  1640  0F45                     	;# 
  1641  0F46                     	;# 
  1642  0F47                     	;# 
  1643  0F48                     	;# 
  1644  0F49                     	;# 
  1645  0F4A                     	;# 
  1646  0F4B                     	;# 
  1647  0F4C                     	;# 
  1648  0F4E                     	;# 
  1649  0F4F                     	;# 
  1650  0F50                     	;# 
  1651  0F51                     	;# 
  1652  0F52                     	;# 
  1653  0F53                     	;# 
  1654  0F54                     	;# 
  1655  0F55                     	;# 
  1656  0F56                     	;# 
  1657  0F57                     	;# 
  1658  0F59                     	;# 
  1659  0F5A                     	;# 
  1660  0F5B                     	;# 
  1661  0F5C                     	;# 
  1662  0F5D                     	;# 
  1663  0F61                     	;# 
  1664  0F62                     	;# 
  1665  0F64                     	;# 
  1666  0F65                     	;# 
  1667  0F66                     	;# 
  1668  0F67                     	;# 
  1669  0F68                     	;# 
  1670  0F69                     	;# 
  1671  0F6A                     	;# 
  1672  0F6B                     	;# 
  1673  0F6C                     	;# 
  1674  0F6D                     	;# 
  1675  0FE4                     	;# 
  1676  0FE5                     	;# 
  1677  0FE6                     	;# 
  1678  0FE7                     	;# 
  1679  0FE8                     	;# 
  1680  0FE9                     	;# 
  1681  0FEA                     	;# 
  1682  0FEB                     	;# 
  1683  0FED                     	;# 
  1684  0FEE                     	;# 
  1685  0FEF                     	;# 
  1686  0000                     	;# 
  1687  0001                     	;# 
  1688  0002                     	;# 
  1689  0003                     	;# 
  1690  0004                     	;# 
  1691  0005                     	;# 
  1692  0006                     	;# 
  1693  0007                     	;# 
  1694  0008                     	;# 
  1695  0009                     	;# 
  1696  000A                     	;# 
  1697  000B                     	;# 
  1698  000C                     	;# 
  1699  000D                     	;# 
  1700  000E                     	;# 
  1701  000F                     	;# 
  1702  0010                     	;# 
  1703  0011                     	;# 
  1704  0012                     	;# 
  1705  0013                     	;# 
  1706  0014                     	;# 
  1707  0015                     	;# 
  1708  0016                     	;# 
  1709  0017                     	;# 
  1710  0018                     	;# 
  1711  0019                     	;# 
  1712  001A                     	;# 
  1713  001C                     	;# 
  1714  001C                     	;# 
  1715  001D                     	;# 
  1716  001D                     	;# 
  1717  001E                     	;# 
  1718  001F                     	;# 
  1719  008C                     	;# 
  1720  008C                     	;# 
  1721  008D                     	;# 
  1722  008E                     	;# 
  1723  008E                     	;# 
  1724  008F                     	;# 
  1725  0090                     	;# 
  1726  0090                     	;# 
  1727  0091                     	;# 
  1728  0093                     	;# 
  1729  0094                     	;# 
  1730  0095                     	;# 
  1731  0096                     	;# 
  1732  0097                     	;# 
  1733  0098                     	;# 
  1734  0099                     	;# 
  1735  009A                     	;# 
  1736  009B                     	;# 
  1737  009C                     	;# 
  1738  009D                     	;# 
  1739  009E                     	;# 
  1740  010C                     	;# 
  1741  010D                     	;# 
  1742  010E                     	;# 
  1743  010E                     	;# 
  1744  010F                     	;# 
  1745  0110                     	;# 
  1746  0110                     	;# 
  1747  0111                     	;# 
  1748  0112                     	;# 
  1749  0112                     	;# 
  1750  0113                     	;# 
  1751  0114                     	;# 
  1752  0114                     	;# 
  1753  0115                     	;# 
  1754  0116                     	;# 
  1755  0116                     	;# 
  1756  0117                     	;# 
  1757  0119                     	;# 
  1758  0119                     	;# 
  1759  0119                     	;# 
  1760  011A                     	;# 
  1761  011A                     	;# 
  1762  011A                     	;# 
  1763  011B                     	;# 
  1764  011B                     	;# 
  1765  011B                     	;# 
  1766  011B                     	;# 
  1767  011B                     	;# 
  1768  011C                     	;# 
  1769  011C                     	;# 
  1770  011C                     	;# 
  1771  011D                     	;# 
  1772  011D                     	;# 
  1773  011D                     	;# 
  1774  011E                     	;# 
  1775  011E                     	;# 
  1776  011E                     	;# 
  1777  011F                     	;# 
  1778  011F                     	;# 
  1779  011F                     	;# 
  1780  011F                     	;# 
  1781  011F                     	;# 
  1782  018C                     	;# 
  1783  018D                     	;# 
  1784  018E                     	;# 
  1785  018F                     	;# 
  1786  0190                     	;# 
  1787  0191                     	;# 
  1788  0192                     	;# 
  1789  0196                     	;# 
  1790  0197                     	;# 
  1791  0198                     	;# 
  1792  0199                     	;# 
  1793  019A                     	;# 
  1794  019B                     	;# 
  1795  019C                     	;# 
  1796  020C                     	;# 
  1797  020C                     	;# 
  1798  020D                     	;# 
  1799  020E                     	;# 
  1800  020F                     	;# 
  1801  020F                     	;# 
  1802  0210                     	;# 
  1803  0210                     	;# 
  1804  0211                     	;# 
  1805  0211                     	;# 
  1806  0212                     	;# 
  1807  0212                     	;# 
  1808  0213                     	;# 
  1809  0214                     	;# 
  1810  0215                     	;# 
  1811  0215                     	;# 
  1812  0216                     	;# 
  1813  0216                     	;# 
  1814  0217                     	;# 
  1815  0217                     	;# 
  1816  0218                     	;# 
  1817  0218                     	;# 
  1818  0219                     	;# 
  1819  021A                     	;# 
  1820  021B                     	;# 
  1821  021B                     	;# 
  1822  021C                     	;# 
  1823  021C                     	;# 
  1824  021D                     	;# 
  1825  021D                     	;# 
  1826  021E                     	;# 
  1827  021F                     	;# 
  1828  028C                     	;# 
  1829  028C                     	;# 
  1830  028D                     	;# 
  1831  028D                     	;# 
  1832  028E                     	;# 
  1833  028F                     	;# 
  1834  0290                     	;# 
  1835  0290                     	;# 
  1836  0291                     	;# 
  1837  0292                     	;# 
  1838  0292                     	;# 
  1839  0293                     	;# 
  1840  0293                     	;# 
  1841  0294                     	;# 
  1842  0295                     	;# 
  1843  0296                     	;# 
  1844  0296                     	;# 
  1845  0297                     	;# 
  1846  0298                     	;# 
  1847  0298                     	;# 
  1848  0299                     	;# 
  1849  0299                     	;# 
  1850  029A                     	;# 
  1851  029B                     	;# 
  1852  029C                     	;# 
  1853  029C                     	;# 
  1854  029D                     	;# 
  1855  030C                     	;# 
  1856  030C                     	;# 
  1857  030D                     	;# 
  1858  030E                     	;# 
  1859  030F                     	;# 
  1860  0310                     	;# 
  1861  0310                     	;# 
  1862  0311                     	;# 
  1863  0312                     	;# 
  1864  0313                     	;# 
  1865  0314                     	;# 
  1866  0314                     	;# 
  1867  0315                     	;# 
  1868  0316                     	;# 
  1869  0317                     	;# 
  1870  0318                     	;# 
  1871  0318                     	;# 
  1872  0319                     	;# 
  1873  031A                     	;# 
  1874  031B                     	;# 
  1875  031C                     	;# 
  1876  031C                     	;# 
  1877  031D                     	;# 
  1878  031E                     	;# 
  1879  031F                     	;# 
  1880  038C                     	;# 
  1881  038C                     	;# 
  1882  038D                     	;# 
  1883  038E                     	;# 
  1884  0390                     	;# 
  1885  0390                     	;# 
  1886  0391                     	;# 
  1887  0392                     	;# 
  1888  040C                     	;# 
  1889  040D                     	;# 
  1890  040E                     	;# 
  1891  040F                     	;# 
  1892  0410                     	;# 
  1893  0411                     	;# 
  1894  0416                     	;# 
  1895  0416                     	;# 
  1896  0417                     	;# 
  1897  0418                     	;# 
  1898  0418                     	;# 
  1899  0419                     	;# 
  1900  041A                     	;# 
  1901  041A                     	;# 
  1902  041B                     	;# 
  1903  041C                     	;# 
  1904  041C                     	;# 
  1905  041D                     	;# 
  1906  041E                     	;# 
  1907  041F                     	;# 
  1908  048C                     	;# 
  1909  048C                     	;# 
  1910  048D                     	;# 
  1911  048E                     	;# 
  1912  048F                     	;# 
  1913  048F                     	;# 
  1914  0490                     	;# 
  1915  0491                     	;# 
  1916  0492                     	;# 
  1917  0492                     	;# 
  1918  0493                     	;# 
  1919  0494                     	;# 
  1920  0495                     	;# 
  1921  0495                     	;# 
  1922  0496                     	;# 
  1923  0497                     	;# 
  1924  0498                     	;# 
  1925  0499                     	;# 
  1926  049A                     	;# 
  1927  049B                     	;# 
  1928  049C                     	;# 
  1929  049D                     	;# 
  1930  050C                     	;# 
  1931  050C                     	;# 
  1932  050D                     	;# 
  1933  050E                     	;# 
  1934  050F                     	;# 
  1935  050F                     	;# 
  1936  0510                     	;# 
  1937  0511                     	;# 
  1938  0512                     	;# 
  1939  0512                     	;# 
  1940  0513                     	;# 
  1941  0514                     	;# 
  1942  0515                     	;# 
  1943  0515                     	;# 
  1944  0516                     	;# 
  1945  0517                     	;# 
  1946  0518                     	;# 
  1947  0519                     	;# 
  1948  051A                     	;# 
  1949  051B                     	;# 
  1950  051C                     	;# 
  1951  051D                     	;# 
  1952  058C                     	;# 
  1953  058C                     	;# 
  1954  058D                     	;# 
  1955  058E                     	;# 
  1956  058F                     	;# 
  1957  058F                     	;# 
  1958  0590                     	;# 
  1959  0591                     	;# 
  1960  0592                     	;# 
  1961  0593                     	;# 
  1962  060C                     	;# 
  1963  060D                     	;# 
  1964  060E                     	;# 
  1965  060F                     	;# 
  1966  0610                     	;# 
  1967  0611                     	;# 
  1968  0612                     	;# 
  1969  0613                     	;# 
  1970  0614                     	;# 
  1971  0616                     	;# 
  1972  0617                     	;# 
  1973  0618                     	;# 
  1974  0619                     	;# 
  1975  061A                     	;# 
  1976  061B                     	;# 
  1977  061C                     	;# 
  1978  061D                     	;# 
  1979  061E                     	;# 
  1980  068C                     	;# 
  1981  068D                     	;# 
  1982  068E                     	;# 
  1983  068F                     	;# 
  1984  0690                     	;# 
  1985  0691                     	;# 
  1986  0692                     	;# 
  1987  0693                     	;# 
  1988  0694                     	;# 
  1989  070C                     	;# 
  1990  070D                     	;# 
  1991  070E                     	;# 
  1992  070F                     	;# 
  1993  0710                     	;# 
  1994  0711                     	;# 
  1995  0712                     	;# 
  1996  0713                     	;# 
  1997  0714                     	;# 
  1998  0716                     	;# 
  1999  0717                     	;# 
  2000  0718                     	;# 
  2001  0719                     	;# 
  2002  071A                     	;# 
  2003  071B                     	;# 
  2004  071C                     	;# 
  2005  071D                     	;# 
  2006  071E                     	;# 
  2007  0796                     	;# 
  2008  0797                     	;# 
  2009  0798                     	;# 
  2010  0799                     	;# 
  2011  079A                     	;# 
  2012  079B                     	;# 
  2013  080C                     	;# 
  2014  080D                     	;# 
  2015  080E                     	;# 
  2016  080F                     	;# 
  2017  0810                     	;# 
  2018  0811                     	;# 
  2019  0812                     	;# 
  2020  0813                     	;# 
  2021  0814                     	;# 
  2022  081A                     	;# 
  2023  081B                     	;# 
  2024  081C                     	;# 
  2025  081D                     	;# 
  2026  081E                     	;# 
  2027  081F                     	;# 
  2028  088C                     	;# 
  2029  088D                     	;# 
  2030  088E                     	;# 
  2031  088F                     	;# 
  2032  0890                     	;# 
  2033  0891                     	;# 
  2034  0892                     	;# 
  2035  0893                     	;# 
  2036  0895                     	;# 
  2037  0896                     	;# 
  2038  0897                     	;# 
  2039  0898                     	;# 
  2040  0899                     	;# 
  2041  089A                     	;# 
  2042  089B                     	;# 
  2043  090C                     	;# 
  2044  090E                     	;# 
  2045  090F                     	;# 
  2046  091F                     	;# 
  2047  091F                     	;# 
  2048  098F                     	;# 
  2049  098F                     	;# 
  2050  0990                     	;# 
  2051  0991                     	;# 
  2052  0992                     	;# 
  2053  0993                     	;# 
  2054  0994                     	;# 
  2055  0995                     	;# 
  2056  0996                     	;# 
  2057  0997                     	;# 
  2058  0E0F                     	;# 
  2059  0E10                     	;# 
  2060  0E11                     	;# 
  2061  0E12                     	;# 
  2062  0E13                     	;# 
  2063  0E14                     	;# 
  2064  0E15                     	;# 
  2065  0E16                     	;# 
  2066  0E17                     	;# 
  2067  0E18                     	;# 
  2068  0E19                     	;# 
  2069  0E1A                     	;# 
  2070  0E1B                     	;# 
  2071  0E1C                     	;# 
  2072  0E1D                     	;# 
  2073  0E1E                     	;# 
  2074  0E1F                     	;# 
  2075  0E20                     	;# 
  2076  0E21                     	;# 
  2077  0E22                     	;# 
  2078  0E23                     	;# 
  2079  0E24                     	;# 
  2080  0E25                     	;# 
  2081  0E26                     	;# 
  2082  0E27                     	;# 
  2083  0E28                     	;# 
  2084  0E29                     	;# 
  2085  0E2A                     	;# 
  2086  0E2B                     	;# 
  2087  0E2C                     	;# 
  2088  0E2D                     	;# 
  2089  0E2E                     	;# 
  2090  0E2F                     	;# 
  2091  0E30                     	;# 
  2092  0E31                     	;# 
  2093  0E32                     	;# 
  2094  0E33                     	;# 
  2095  0E34                     	;# 
  2096  0E35                     	;# 
  2097  0E36                     	;# 
  2098  0E37                     	;# 
  2099  0E8F                     	;# 
  2100  0E90                     	;# 
  2101  0E91                     	;# 
  2102  0E92                     	;# 
  2103  0E93                     	;# 
  2104  0E94                     	;# 
  2105  0E95                     	;# 
  2106  0E96                     	;# 
  2107  0E97                     	;# 
  2108  0E9C                     	;# 
  2109  0E9D                     	;# 
  2110  0E9E                     	;# 
  2111  0EA1                     	;# 
  2112  0EA2                     	;# 
  2113  0EA3                     	;# 
  2114  0EA4                     	;# 
  2115  0EA5                     	;# 
  2116  0EA9                     	;# 
  2117  0EAA                     	;# 
  2118  0EAB                     	;# 
  2119  0EAC                     	;# 
  2120  0EB1                     	;# 
  2121  0EB2                     	;# 
  2122  0EB3                     	;# 
  2123  0EB8                     	;# 
  2124  0EB9                     	;# 
  2125  0EBA                     	;# 
  2126  0EBB                     	;# 
  2127  0EBC                     	;# 
  2128  0EBD                     	;# 
  2129  0EBE                     	;# 
  2130  0EC3                     	;# 
  2131  0EC5                     	;# 
  2132  0EC6                     	;# 
  2133  0EC7                     	;# 
  2134  0EC8                     	;# 
  2135  0EC9                     	;# 
  2136  0ECA                     	;# 
  2137  0ECB                     	;# 
  2138  0ECC                     	;# 
  2139  0F10                     	;# 
  2140  0F11                     	;# 
  2141  0F12                     	;# 
  2142  0F13                     	;# 
  2143  0F14                     	;# 
  2144  0F15                     	;# 
  2145  0F16                     	;# 
  2146  0F17                     	;# 
  2147  0F18                     	;# 
  2148  0F19                     	;# 
  2149  0F1A                     	;# 
  2150  0F1B                     	;# 
  2151  0F1C                     	;# 
  2152  0F1D                     	;# 
  2153  0F1E                     	;# 
  2154  0F1F                     	;# 
  2155  0F20                     	;# 
  2156  0F21                     	;# 
  2157  0F22                     	;# 
  2158  0F23                     	;# 
  2159  0F24                     	;# 
  2160  0F25                     	;# 
  2161  0F26                     	;# 
  2162  0F27                     	;# 
  2163  0F28                     	;# 
  2164  0F29                     	;# 
  2165  0F2A                     	;# 
  2166  0F2B                     	;# 
  2167  0F2C                     	;# 
  2168  0F2D                     	;# 
  2169  0F2E                     	;# 
  2170  0F2F                     	;# 
  2171  0F30                     	;# 
  2172  0F31                     	;# 
  2173  0F32                     	;# 
  2174  0F38                     	;# 
  2175  0F39                     	;# 
  2176  0F3A                     	;# 
  2177  0F3B                     	;# 
  2178  0F3C                     	;# 
  2179  0F3D                     	;# 
  2180  0F3E                     	;# 
  2181  0F3F                     	;# 
  2182  0F40                     	;# 
  2183  0F41                     	;# 
  2184  0F43                     	;# 
  2185  0F44                     	;# 
  2186  0F45                     	;# 
  2187  0F46                     	;# 
  2188  0F47                     	;# 
  2189  0F48                     	;# 
  2190  0F49                     	;# 
  2191  0F4A                     	;# 
  2192  0F4B                     	;# 
  2193  0F4C                     	;# 
  2194  0F4E                     	;# 
  2195  0F4F                     	;# 
  2196  0F50                     	;# 
  2197  0F51                     	;# 
  2198  0F52                     	;# 
  2199  0F53                     	;# 
  2200  0F54                     	;# 
  2201  0F55                     	;# 
  2202  0F56                     	;# 
  2203  0F57                     	;# 
  2204  0F59                     	;# 
  2205  0F5A                     	;# 
  2206  0F5B                     	;# 
  2207  0F5C                     	;# 
  2208  0F5D                     	;# 
  2209  0F61                     	;# 
  2210  0F62                     	;# 
  2211  0F64                     	;# 
  2212  0F65                     	;# 
  2213  0F66                     	;# 
  2214  0F67                     	;# 
  2215  0F68                     	;# 
  2216  0F69                     	;# 
  2217  0F6A                     	;# 
  2218  0F6B                     	;# 
  2219  0F6C                     	;# 
  2220  0F6D                     	;# 
  2221  0FE4                     	;# 
  2222  0FE5                     	;# 
  2223  0FE6                     	;# 
  2224  0FE7                     	;# 
  2225  0FE8                     	;# 
  2226  0FE9                     	;# 
  2227  0FEA                     	;# 
  2228  0FEB                     	;# 
  2229  0FED                     	;# 
  2230  0FEE                     	;# 
  2231  0FEF                     	;# 
  2232  0019                     _LATDbits	set	25
  2233  0014                     _TRISD	set	20
  2234  0013                     _TRISC	set	19
  2235  0012                     _TRISB	set	18
  2236  0011                     _TRISA	set	17
  2237  0015                     _TRISE	set	21
  2238  0018                     _LATC	set	24
  2239  0017                     _LATB	set	23
  2240  0016                     _LATA	set	22
  2241  0019                     _LATD	set	25
  2242  001A                     _LATE	set	26
  2243  079B                     _PMD5	set	1947
  2244  079A                     _PMD4	set	1946
  2245  0799                     _PMD3	set	1945
  2246  0798                     _PMD2	set	1944
  2247  0797                     _PMD1	set	1943
  2248  0796                     _PMD0	set	1942
  2249  0892                     _OSCTUNE	set	2194
  2250  0893                     _OSCFRQ	set	2195
  2251  0891                     _OSCEN	set	2193
  2252  088F                     _OSCCON3	set	2191
  2253  088D                     _OSCCON1	set	2189
  2254  0F68                     _INLVLE	set	3944
  2255  0F5D                     _INLVLD	set	3933
  2256  0F52                     _INLVLC	set	3922
  2257  0F47                     _INLVLB	set	3911
  2258  0F3C                     _INLVLA	set	3900
  2259  0F67                     _SLRCONE	set	3943
  2260  0F5C                     _SLRCOND	set	3932
  2261  0F51                     _SLRCONC	set	3921
  2262  0F46                     _SLRCONB	set	3910
  2263  0F3B                     _SLRCONA	set	3899
  2264  0F5B                     _ODCOND	set	3931
  2265  0F50                     _ODCONC	set	3920
  2266  0F45                     _ODCONB	set	3909
  2267  0F3A                     _ODCONA	set	3898
  2268  0F66                     _ODCONE	set	3942
  2269  0F4F                     _WPUC	set	3919
  2270  0F39                     _WPUA	set	3897
  2271  0F44                     _WPUB	set	3908
  2272  0F65                     _WPUE	set	3941
  2273  0F5A                     _WPUD	set	3930
  2274  0F38                     _ANSELA	set	3896
  2275  0F64                     _ANSELE	set	3940
  2276  0F43                     _ANSELB	set	3907
  2277  0F4E                     _ANSELC	set	3918
  2278  0F59                     _ANSELD	set	3929
  2279                           
  2280                           	psect	cinit
  2281  07FD                     start_initialization:	
  2282                           ; #config settings
  2283                           
  2284  07FD                     __initialization:
  2285  07FD                     end_of_initialization:	
  2286                           ;End of C runtime variable initialization code
  2287                           
  2288  07FD                     __end_of__initialization:
  2289  07FD  0020               	movlb	0
  2290  07FE  3187  2FA6         	ljmp	_main	;jump to C main() function
  2291                           
  2292                           	psect	cstackCOMMON
  2293  0070                     __pcstackCOMMON:
  2294  0070                     ?_PMD_Initialize:
  2295  0070                     ??_PMD_Initialize:	
  2296                           ; 1 bytes @ 0x0
  2297                           
  2298  0070                     ?_PIN_MANAGER_Initialize:	
  2299                           ; 1 bytes @ 0x0
  2300                           
  2301  0070                     ??_PIN_MANAGER_Initialize:	
  2302                           ; 1 bytes @ 0x0
  2303                           
  2304  0070                     ?_OSCILLATOR_Initialize:	
  2305                           ; 1 bytes @ 0x0
  2306                           
  2307  0070                     ??_OSCILLATOR_Initialize:	
  2308                           ; 1 bytes @ 0x0
  2309                           
  2310  0070                     ?_SYSTEM_Initialize:	
  2311                           ; 1 bytes @ 0x0
  2312                           
  2313  0070                     ??_SYSTEM_Initialize:	
  2314                           ; 1 bytes @ 0x0
  2315                           
  2316  0070                     ?_main:	
  2317                           ; 1 bytes @ 0x0
  2318                           
  2319  0070                     ??_main:	
  2320                           ; 1 bytes @ 0x0
  2321                           
  2322                           
  2323                           ; 1 bytes @ 0x0
  2324  0070                     	ds	2
  2325                           
  2326                           	psect	maintext
  2327  07A6                     __pmaintext:	
  2328 ;;
  2329 ;;Main: autosize = 0, tempsize = 2, incstack = 0, save=0
  2330 ;;
  2331 ;; *************** function _main *****************
  2332 ;; Defined at:
  2333 ;;		line 49 in file "main.c"
  2334 ;; Parameters:    Size  Location     Type
  2335 ;;		None
  2336 ;; Auto vars:     Size  Location     Type
  2337 ;;		None
  2338 ;; Return value:  Size  Location     Type
  2339 ;;                  1    wreg      void 
  2340 ;; Registers used:
  2341 ;;		wreg, status,2, status,0, pclath, cstack
  2342 ;; Tracked objects:
  2343 ;;		On entry : B1F/0
  2344 ;;		On exit  : 0/0
  2345 ;;		Unchanged: 0/0
  2346 ;; Data sizes:     COMMON   BANK0   BANK1   BANK2   BANK3   BANK4   BANK5   BANK6   BANK7   BANK8   BANK9  BANK10  BANK1
      +1  BANK12
  2347 ;;      Params:         0       0       0       0       0       0       0       0       0       0       0       0       
      +0       0
  2348 ;;      Locals:         0       0       0       0       0       0       0       0       0       0       0       0       
      +0       0
  2349 ;;      Temps:          2       0       0       0       0       0       0       0       0       0       0       0       
      +0       0
  2350 ;;      Totals:         2       0       0       0       0       0       0       0       0       0       0       0       
      +0       0
  2351 ;;Total ram usage:        2 bytes
  2352 ;; Hardware stack levels required when called:    2
  2353 ;; This function calls:
  2354 ;;		_SYSTEM_Initialize
  2355 ;; This function is called by:
  2356 ;;		Startup code after reset
  2357 ;; This function uses a non-reentrant model
  2358 ;;
  2359                           
  2360                           
  2361                           ;psect for function _main
  2362  07A6                     _main:
  2363  07A6                     l797:	
  2364                           ;incstack = 0
  2365                           ; Regs used in _main: [wreg+status,2+status,0+pclath+cstack]
  2366                           
  2367                           
  2368                           ;main.c: 52:     SYSTEM_Initialize();
  2369  07A6  3187  279C  3187   	fcall	_SYSTEM_Initialize
  2370  07A9                     l799:
  2371                           
  2372                           ;main.c: 70:     {;main.c: 71:         _delay((unsigned long)((1000)*(1000000/4000.0)));
  2373  07A9  3002               	movlw	2
  2374  07AA  00F1               	movwf	??_main+1
  2375  07AB  3045               	movlw	69
  2376  07AC  00F0               	movwf	??_main
  2377  07AD  30AA               	movlw	170
  2378  07AE                     u37:
  2379  07AE  0B89               	decfsz	9,f
  2380  07AF  2FAE               	goto	u37
  2381  07B0  0BF0               	decfsz	??_main,f
  2382  07B1  2FAE               	goto	u37
  2383  07B2  0BF1               	decfsz	??_main+1,f
  2384  07B3  2FAE               	goto	u37
  2385  07B4                     l801:
  2386  07B4  1003               	clrc
  2387  07B5  0020               	movlb	0	; select bank0
  2388  07B6  1C99               	btfss	25,1	;volatile
  2389  07B7  1403               	setc
  2390  07B8  1803               	btfsc	3,0
  2391  07B9  2FBB               	goto	u11
  2392  07BA  2FBE               	goto	u10
  2393  07BB                     u11:
  2394  07BB  0020               	movlb	0	; select bank0
  2395  07BC  1499               	bsf	25,1	;volatile
  2396  07BD  2FC0               	goto	u24
  2397  07BE                     u10:
  2398  07BE  0020               	movlb	0	; select bank0
  2399  07BF  1099               	bcf	25,1	;volatile
  2400  07C0                     u24:
  2401  07C0  2FA9               	goto	l799
  2402  07C1  3180  2802         	ljmp	start
  2403  07C3                     __end_of_main:
  2404                           
  2405                           	psect	text1
  2406  079C                     __ptext1:	
  2407 ;; *************** function _SYSTEM_Initialize *****************
  2408 ;; Defined at:
  2409 ;;		line 50 in file "mcc_generated_files/mcc.c"
  2410 ;; Parameters:    Size  Location     Type
  2411 ;;		None
  2412 ;; Auto vars:     Size  Location     Type
  2413 ;;		None
  2414 ;; Return value:  Size  Location     Type
  2415 ;;                  1    wreg      void 
  2416 ;; Registers used:
  2417 ;;		wreg, status,2, status,0, pclath, cstack
  2418 ;; Tracked objects:
  2419 ;;		On entry : 0/0
  2420 ;;		On exit  : 0/0
  2421 ;;		Unchanged: 0/0
  2422 ;; Data sizes:     COMMON   BANK0   BANK1   BANK2   BANK3   BANK4   BANK5   BANK6   BANK7   BANK8   BANK9  BANK10  BANK1
      +1  BANK12
  2423 ;;      Params:         0       0       0       0       0       0       0       0       0       0       0       0       
      +0       0
  2424 ;;      Locals:         0       0       0       0       0       0       0       0       0       0       0       0       
      +0       0
  2425 ;;      Temps:          0       0       0       0       0       0       0       0       0       0       0       0       
      +0       0
  2426 ;;      Totals:         0       0       0       0       0       0       0       0       0       0       0       0       
      +0       0
  2427 ;;Total ram usage:        0 bytes
  2428 ;; Hardware stack levels used:    1
  2429 ;; Hardware stack levels required when called:    1
  2430 ;; This function calls:
  2431 ;;		_OSCILLATOR_Initialize
  2432 ;;		_PIN_MANAGER_Initialize
  2433 ;;		_PMD_Initialize
  2434 ;; This function is called by:
  2435 ;;		_main
  2436 ;; This function uses a non-reentrant model
  2437 ;;
  2438                           
  2439                           
  2440                           ;psect for function _SYSTEM_Initialize
  2441  079C                     _SYSTEM_Initialize:
  2442  079C                     l791:	
  2443                           ;incstack = 0
  2444                           ; Regs used in _SYSTEM_Initialize: [wreg+status,2+status,0+pclath+cstack]
  2445                           
  2446                           
  2447                           ;mcc_generated_files/mcc.c: 52:     PMD_Initialize();
  2448  079C  3187  278B  3187   	fcall	_PMD_Initialize
  2449  079F                     l793:
  2450                           
  2451                           ;mcc_generated_files/mcc.c: 53:     PIN_MANAGER_Initialize();
  2452  079F  3187  27C3  3187   	fcall	_PIN_MANAGER_Initialize
  2453  07A2                     l795:
  2454                           
  2455                           ;mcc_generated_files/mcc.c: 54:     OSCILLATOR_Initialize();
  2456  07A2  3187  2793  3187   	fcall	_OSCILLATOR_Initialize
  2457  07A5                     l31:
  2458  07A5  0008               	return
  2459  07A6                     __end_of_SYSTEM_Initialize:
  2460                           
  2461                           	psect	text2
  2462  078B                     __ptext2:	
  2463 ;; *************** function _PMD_Initialize *****************
  2464 ;; Defined at:
  2465 ;;		line 71 in file "mcc_generated_files/mcc.c"
  2466 ;; Parameters:    Size  Location     Type
  2467 ;;		None
  2468 ;; Auto vars:     Size  Location     Type
  2469 ;;		None
  2470 ;; Return value:  Size  Location     Type
  2471 ;;                  1    wreg      void 
  2472 ;; Registers used:
  2473 ;;		status,2
  2474 ;; Tracked objects:
  2475 ;;		On entry : 0/0
  2476 ;;		On exit  : 0/0
  2477 ;;		Unchanged: 0/0
  2478 ;; Data sizes:     COMMON   BANK0   BANK1   BANK2   BANK3   BANK4   BANK5   BANK6   BANK7   BANK8   BANK9  BANK10  BANK1
      +1  BANK12
  2479 ;;      Params:         0       0       0       0       0       0       0       0       0       0       0       0       
      +0       0
  2480 ;;      Locals:         0       0       0       0       0       0       0       0       0       0       0       0       
      +0       0
  2481 ;;      Temps:          0       0       0       0       0       0       0       0       0       0       0       0       
      +0       0
  2482 ;;      Totals:         0       0       0       0       0       0       0       0       0       0       0       0       
      +0       0
  2483 ;;Total ram usage:        0 bytes
  2484 ;; Hardware stack levels used:    1
  2485 ;; This function calls:
  2486 ;;		Nothing
  2487 ;; This function is called by:
  2488 ;;		_SYSTEM_Initialize
  2489 ;; This function uses a non-reentrant model
  2490 ;;
  2491                           
  2492                           
  2493                           ;psect for function _PMD_Initialize
  2494  078B                     _PMD_Initialize:
  2495  078B                     l739:	
  2496                           ;incstack = 0
  2497                           ; Regs used in _PMD_Initialize: [status,2]
  2498                           
  2499                           
  2500                           ;mcc_generated_files/mcc.c: 74:     PMD0 = 0x00;
  2501  078B  002F               	movlb	15	; select bank15
  2502  078C  0196               	clrf	22	;volatile
  2503                           
  2504                           ;mcc_generated_files/mcc.c: 76:     PMD1 = 0x00;
  2505  078D  0197               	clrf	23	;volatile
  2506                           
  2507                           ;mcc_generated_files/mcc.c: 78:     PMD2 = 0x00;
  2508  078E  0198               	clrf	24	;volatile
  2509                           
  2510                           ;mcc_generated_files/mcc.c: 80:     PMD3 = 0x00;
  2511  078F  0199               	clrf	25	;volatile
  2512                           
  2513                           ;mcc_generated_files/mcc.c: 82:     PMD4 = 0x00;
  2514  0790  019A               	clrf	26	;volatile
  2515                           
  2516                           ;mcc_generated_files/mcc.c: 84:     PMD5 = 0x00;
  2517  0791  019B               	clrf	27	;volatile
  2518  0792                     l37:
  2519  0792  0008               	return
  2520  0793                     __end_of_PMD_Initialize:
  2521                           
  2522                           	psect	text3
  2523  07C3                     __ptext3:	
  2524 ;; *************** function _PIN_MANAGER_Initialize *****************
  2525 ;; Defined at:
  2526 ;;		line 55 in file "mcc_generated_files/pin_manager.c"
  2527 ;; Parameters:    Size  Location     Type
  2528 ;;		None
  2529 ;; Auto vars:     Size  Location     Type
  2530 ;;		None
  2531 ;; Return value:  Size  Location     Type
  2532 ;;                  1    wreg      void 
  2533 ;; Registers used:
  2534 ;;		wreg, status,2
  2535 ;; Tracked objects:
  2536 ;;		On entry : 0/0
  2537 ;;		On exit  : 0/0
  2538 ;;		Unchanged: 0/0
  2539 ;; Data sizes:     COMMON   BANK0   BANK1   BANK2   BANK3   BANK4   BANK5   BANK6   BANK7   BANK8   BANK9  BANK10  BANK1
      +1  BANK12
  2540 ;;      Params:         0       0       0       0       0       0       0       0       0       0       0       0       
      +0       0
  2541 ;;      Locals:         0       0       0       0       0       0       0       0       0       0       0       0       
      +0       0
  2542 ;;      Temps:          0       0       0       0       0       0       0       0       0       0       0       0       
      +0       0
  2543 ;;      Totals:         0       0       0       0       0       0       0       0       0       0       0       0       
      +0       0
  2544 ;;Total ram usage:        0 bytes
  2545 ;; Hardware stack levels used:    1
  2546 ;; This function calls:
  2547 ;;		Nothing
  2548 ;; This function is called by:
  2549 ;;		_SYSTEM_Initialize
  2550 ;; This function uses a non-reentrant model
  2551 ;;
  2552                           
  2553                           
  2554                           ;psect for function _PIN_MANAGER_Initialize
  2555  07C3                     _PIN_MANAGER_Initialize:
  2556  07C3                     l741:	
  2557                           ;incstack = 0
  2558                           ; Regs used in _PIN_MANAGER_Initialize: [wreg+status,2]
  2559                           
  2560                           
  2561                           ;mcc_generated_files/pin_manager.c: 60:     LATE = 0x00;
  2562  07C3  0020               	movlb	0	; select bank0
  2563  07C4  019A               	clrf	26	;volatile
  2564                           
  2565                           ;mcc_generated_files/pin_manager.c: 61:     LATD = 0x00;
  2566  07C5  0199               	clrf	25	;volatile
  2567                           
  2568                           ;mcc_generated_files/pin_manager.c: 62:     LATA = 0x00;
  2569  07C6  0196               	clrf	22	;volatile
  2570                           
  2571                           ;mcc_generated_files/pin_manager.c: 63:     LATB = 0x00;
  2572  07C7  0197               	clrf	23	;volatile
  2573                           
  2574                           ;mcc_generated_files/pin_manager.c: 64:     LATC = 0x00;
  2575  07C8  0198               	clrf	24	;volatile
  2576  07C9                     l743:
  2577                           
  2578                           ;mcc_generated_files/pin_manager.c: 69:     TRISE = 0x07;
  2579  07C9  3007               	movlw	7
  2580  07CA  0095               	movwf	21	;volatile
  2581  07CB                     l745:
  2582                           
  2583                           ;mcc_generated_files/pin_manager.c: 70:     TRISA = 0xFF;
  2584  07CB  30FF               	movlw	255
  2585  07CC  0091               	movwf	17	;volatile
  2586  07CD                     l747:
  2587                           
  2588                           ;mcc_generated_files/pin_manager.c: 71:     TRISB = 0xFF;
  2589  07CD  30FF               	movlw	255
  2590  07CE  0092               	movwf	18	;volatile
  2591  07CF                     l749:
  2592                           
  2593                           ;mcc_generated_files/pin_manager.c: 72:     TRISC = 0xFF;
  2594  07CF  30FF               	movlw	255
  2595  07D0  0093               	movwf	19	;volatile
  2596  07D1                     l751:
  2597                           
  2598                           ;mcc_generated_files/pin_manager.c: 73:     TRISD = 0xFD;
  2599  07D1  30FD               	movlw	253
  2600  07D2  0094               	movwf	20	;volatile
  2601  07D3                     l753:
  2602                           
  2603                           ;mcc_generated_files/pin_manager.c: 78:     ANSELD = 0xFD;
  2604  07D3  30FD               	movlw	253
  2605  07D4  003E               	movlb	30	; select bank30
  2606  07D5  00D9               	movwf	89	;volatile
  2607  07D6                     l755:
  2608                           
  2609                           ;mcc_generated_files/pin_manager.c: 79:     ANSELC = 0xFF;
  2610  07D6  30FF               	movlw	255
  2611  07D7  00CE               	movwf	78	;volatile
  2612  07D8                     l757:
  2613                           
  2614                           ;mcc_generated_files/pin_manager.c: 80:     ANSELB = 0xFF;
  2615  07D8  30FF               	movlw	255
  2616  07D9  00C3               	movwf	67	;volatile
  2617  07DA                     l759:
  2618                           
  2619                           ;mcc_generated_files/pin_manager.c: 81:     ANSELE = 0x07;
  2620  07DA  3007               	movlw	7
  2621  07DB  00E4               	movwf	100	;volatile
  2622  07DC                     l761:
  2623                           
  2624                           ;mcc_generated_files/pin_manager.c: 82:     ANSELA = 0xFF;
  2625  07DC  30FF               	movlw	255
  2626  07DD  00B8               	movwf	56	;volatile
  2627                           
  2628                           ;mcc_generated_files/pin_manager.c: 87:     WPUD = 0x00;
  2629  07DE  01DA               	clrf	90	;volatile
  2630                           
  2631                           ;mcc_generated_files/pin_manager.c: 88:     WPUE = 0x00;
  2632  07DF  01E5               	clrf	101	;volatile
  2633                           
  2634                           ;mcc_generated_files/pin_manager.c: 89:     WPUB = 0x00;
  2635  07E0  01C4               	clrf	68	;volatile
  2636                           
  2637                           ;mcc_generated_files/pin_manager.c: 90:     WPUA = 0x00;
  2638  07E1  01B9               	clrf	57	;volatile
  2639                           
  2640                           ;mcc_generated_files/pin_manager.c: 91:     WPUC = 0x00;
  2641  07E2  01CF               	clrf	79	;volatile
  2642                           
  2643                           ;mcc_generated_files/pin_manager.c: 96:     ODCONE = 0x00;
  2644  07E3  01E6               	clrf	102	;volatile
  2645                           
  2646                           ;mcc_generated_files/pin_manager.c: 97:     ODCONA = 0x00;
  2647  07E4  01BA               	clrf	58	;volatile
  2648                           
  2649                           ;mcc_generated_files/pin_manager.c: 98:     ODCONB = 0x00;
  2650  07E5  01C5               	clrf	69	;volatile
  2651                           
  2652                           ;mcc_generated_files/pin_manager.c: 99:     ODCONC = 0x00;
  2653  07E6  01D0               	clrf	80	;volatile
  2654                           
  2655                           ;mcc_generated_files/pin_manager.c: 100:     ODCOND = 0x00;
  2656  07E7  01DB               	clrf	91	;volatile
  2657  07E8                     l763:
  2658                           
  2659                           ;mcc_generated_files/pin_manager.c: 105:     SLRCONA = 0xFF;
  2660  07E8  30FF               	movlw	255
  2661  07E9  00BB               	movwf	59	;volatile
  2662  07EA                     l765:
  2663                           
  2664                           ;mcc_generated_files/pin_manager.c: 106:     SLRCONB = 0xFF;
  2665  07EA  30FF               	movlw	255
  2666  07EB  00C6               	movwf	70	;volatile
  2667  07EC                     l767:
  2668                           
  2669                           ;mcc_generated_files/pin_manager.c: 107:     SLRCONC = 0xFF;
  2670  07EC  30FF               	movlw	255
  2671  07ED  00D1               	movwf	81	;volatile
  2672  07EE                     l769:
  2673                           
  2674                           ;mcc_generated_files/pin_manager.c: 108:     SLRCOND = 0xFF;
  2675  07EE  30FF               	movlw	255
  2676  07EF  00DC               	movwf	92	;volatile
  2677  07F0                     l771:
  2678                           
  2679                           ;mcc_generated_files/pin_manager.c: 109:     SLRCONE = 0x07;
  2680  07F0  3007               	movlw	7
  2681  07F1  00E7               	movwf	103	;volatile
  2682  07F2                     l773:
  2683                           
  2684                           ;mcc_generated_files/pin_manager.c: 114:     INLVLA = 0xFF;
  2685  07F2  30FF               	movlw	255
  2686  07F3  00BC               	movwf	60	;volatile
  2687  07F4                     l775:
  2688                           
  2689                           ;mcc_generated_files/pin_manager.c: 115:     INLVLB = 0xFF;
  2690  07F4  30FF               	movlw	255
  2691  07F5  00C7               	movwf	71	;volatile
  2692  07F6                     l777:
  2693                           
  2694                           ;mcc_generated_files/pin_manager.c: 116:     INLVLC = 0xFF;
  2695  07F6  30FF               	movlw	255
  2696  07F7  00D2               	movwf	82	;volatile
  2697  07F8                     l779:
  2698                           
  2699                           ;mcc_generated_files/pin_manager.c: 117:     INLVLD = 0xFF;
  2700  07F8  30FF               	movlw	255
  2701  07F9  00DD               	movwf	93	;volatile
  2702  07FA                     l781:
  2703                           
  2704                           ;mcc_generated_files/pin_manager.c: 118:     INLVLE = 0x07;
  2705  07FA  3007               	movlw	7
  2706  07FB  00E8               	movwf	104	;volatile
  2707  07FC                     l110:
  2708  07FC  0008               	return
  2709  07FD                     __end_of_PIN_MANAGER_Initialize:
  2710                           
  2711                           	psect	text4
  2712  0793                     __ptext4:	
  2713 ;; *************** function _OSCILLATOR_Initialize *****************
  2714 ;; Defined at:
  2715 ;;		line 57 in file "mcc_generated_files/mcc.c"
  2716 ;; Parameters:    Size  Location     Type
  2717 ;;		None
  2718 ;; Auto vars:     Size  Location     Type
  2719 ;;		None
  2720 ;; Return value:  Size  Location     Type
  2721 ;;                  1    wreg      void 
  2722 ;; Registers used:
  2723 ;;		wreg, status,2
  2724 ;; Tracked objects:
  2725 ;;		On entry : 0/0
  2726 ;;		On exit  : 0/0
  2727 ;;		Unchanged: 0/0
  2728 ;; Data sizes:     COMMON   BANK0   BANK1   BANK2   BANK3   BANK4   BANK5   BANK6   BANK7   BANK8   BANK9  BANK10  BANK1
      +1  BANK12
  2729 ;;      Params:         0       0       0       0       0       0       0       0       0       0       0       0       
      +0       0
  2730 ;;      Locals:         0       0       0       0       0       0       0       0       0       0       0       0       
      +0       0
  2731 ;;      Temps:          0       0       0       0       0       0       0       0       0       0       0       0       
      +0       0
  2732 ;;      Totals:         0       0       0       0       0       0       0       0       0       0       0       0       
      +0       0
  2733 ;;Total ram usage:        0 bytes
  2734 ;; Hardware stack levels used:    1
  2735 ;; This function calls:
  2736 ;;		Nothing
  2737 ;; This function is called by:
  2738 ;;		_SYSTEM_Initialize
  2739 ;; This function uses a non-reentrant model
  2740 ;;
  2741                           
  2742                           
  2743                           ;psect for function _OSCILLATOR_Initialize
  2744  0793                     _OSCILLATOR_Initialize:
  2745  0793                     l783:	
  2746                           ;incstack = 0
  2747                           ; Regs used in _OSCILLATOR_Initialize: [wreg+status,2]
  2748                           
  2749                           
  2750                           ;mcc_generated_files/mcc.c: 60:     OSCCON1 = 0x62;
  2751  0793  3062               	movlw	98
  2752  0794  0031               	movlb	17	; select bank17
  2753  0795  008D               	movwf	13	;volatile
  2754  0796                     l785:
  2755                           
  2756                           ;mcc_generated_files/mcc.c: 62:     OSCCON3 = 0x00;
  2757  0796  018F               	clrf	15	;volatile
  2758  0797                     l787:
  2759                           
  2760                           ;mcc_generated_files/mcc.c: 64:     OSCEN = 0x00;
  2761  0797  0191               	clrf	17	;volatile
  2762                           
  2763                           ;mcc_generated_files/mcc.c: 66:     OSCFRQ = 0x02;
  2764  0798  3002               	movlw	2
  2765  0799  0093               	movwf	19	;volatile
  2766  079A                     l789:
  2767                           
  2768                           ;mcc_generated_files/mcc.c: 68:     OSCTUNE = 0x00;
  2769  079A  0192               	clrf	18	;volatile
  2770  079B                     l34:
  2771  079B  0008               	return
  2772  079C                     __end_of_OSCILLATOR_Initialize:
  2773  007E                     btemp	set	126	;btemp
  2774  007E                     wtemp0	set	126
  2775                           
  2776                           	psect	config
  2777                           
  2778                           ;Config register CONFIG1 @ 0x8007
  2779                           ;	External Oscillator mode selection bits
  2780                           ;	FEXTOSC = OFF, Oscillator not enabled
  2781                           ;	Power-up default value for COSC bits
  2782                           ;	RSTOSC = HFINT1, HFINTOSC (1MHz)
  2783                           ;	Clock Out Enable bit
  2784                           ;	CLKOUTEN = OFF, CLKOUT function is disabled; i/o or oscillator function on OSC2
  2785                           ;	Clock Switch Enable bit
  2786                           ;	CSWEN = ON, Writing to NOSC and NDIV is allowed
  2787                           ;	Fail-Safe Clock Monitor Enable bit
  2788                           ;	FCMEN = ON, FSCM timer enabled
  2789  8007                     	org	32775
  2790  8007  3FEC               	dw	16364
  2791                           
  2792                           ;Config register CONFIG2 @ 0x8008
  2793                           ;	Master Clear Enable bit
  2794                           ;	MCLRE = ON, MCLR pin is Master Clear function
  2795                           ;	Power-up Timer Enable bit
  2796                           ;	PWRTE = OFF, PWRT disabled
  2797                           ;	Low-Power BOR enable bit
  2798                           ;	LPBOREN = OFF, ULPBOR disabled
  2799                           ;	Brown-out reset enable bits
  2800                           ;	BOREN = ON, Brown-out Reset Enabled, SBOREN bit is ignored
  2801                           ;	Brown-out Reset Voltage Selection
  2802                           ;	BORV = LO, Brown-out Reset Voltage (VBOR) set to 1.9V on LF, and 2.45V on F Devices
  2803                           ;	Zero-cross detect disable
  2804                           ;	ZCD = OFF, Zero-cross detect circuit is disabled at POR.
  2805                           ;	Peripheral Pin Select one-way control
  2806                           ;	PPS1WAY = ON, The PPSLOCK bit can be cleared and set only once in software
  2807                           ;	Stack Overflow/Underflow Reset Enable bit
  2808                           ;	STVREN = ON, Stack Overflow or Underflow will cause a reset
  2809                           ;	Background Debugger
  2810                           ;	DEBUG = OFF, Background Debugger disabled
  2811  8008                     	org	32776
  2812  8008  3FFF               	dw	16383
  2813                           
  2814                           ;Config register CONFIG3 @ 0x8009
  2815                           ;	WDT Period Select bits
  2816                           ;	WDTCPS = WDTCPS_31, Divider ratio 1:65536; software control of WDTPS
  2817                           ;	WDT operating mode
  2818                           ;	WDTE = OFF, WDT Disabled, SWDTEN is ignored
  2819                           ;	WDT Window Select bits
  2820                           ;	WDTCWS = WDTCWS_7, window always open (100%); software control; keyed access not requi
      +                          red
  2821                           ;	WDT input clock selector
  2822                           ;	WDTCCS = SC, Software Control
  2823  8009                     	org	32777
  2824  8009  3F9F               	dw	16287
  2825                           
  2826                           ;Config register CONFIG4 @ 0x800A
  2827                           ;	UserNVM self-write protection bits
  2828                           ;	WRT = OFF, Write protection off
  2829                           ;	Scanner Enable bit
  2830                           ;	SCANE = available, Scanner module is available for use
  2831                           ;	Low Voltage Programming Enable bit
  2832                           ;	LVP = ON, Low Voltage programming enabled. MCLR/Vpp pin function is MCLR.
  2833  800A                     	org	32778
  2834  800A  3FFF               	dw	16383
  2835                           
  2836                           ;Config register CONFIG5 @ 0x800B
  2837                           ;	UserNVM Program memory code protection bit
  2838                           ;	CP = OFF, Program Memory code protection disabled
  2839                           ;	DataNVM code protection bit
  2840                           ;	CPD = OFF, Data EEPROM code protection disabled
  2841  800B                     	org	32779
  2842  800B  3FFF               	dw	16383

Data Sizes:
    Strings     0
    Constant    0
    Data        0
    BSS         0
    Persistent  32
    Stack       0

Auto Spaces:
    Space          Size  Autos    Used
    COMMON           14      2       2
    BANK0            80      0       0
    BANK1            80      0       0
    BANK2            80      0       0
    BANK3            80      0       0
    BANK4            80      0       0
    BANK5            80      0       0
    BANK6            80      0       0
    BANK7            80      0       0
    BANK8            80      0       0
    BANK9            80      0       0
    BANK10           80      0       0
    BANK11           80      0       0
    BANK12           48      0       0

Pointer List with Targets:

    None.

Critical Paths under _main in COMMON

    None.

Critical Paths under _main in BANK0

    None.

Critical Paths under _main in BANK1

    None.

Critical Paths under _main in BANK2

    None.

Critical Paths under _main in BANK3

    None.

Critical Paths under _main in BANK4

    None.

Critical Paths under _main in BANK5

    None.

Critical Paths under _main in BANK6

    None.

Critical Paths under _main in BANK7

    None.

Critical Paths under _main in BANK8

    None.

Critical Paths under _main in BANK9

    None.

Critical Paths under _main in BANK10

    None.

Critical Paths under _main in BANK11

    None.

Critical Paths under _main in BANK12

    None.

Call Graph Tables:

 ---------------------------------------------------------------------------------
 (Depth) Function   	        Calls       Base Space   Used Autos Params    Refs
 ---------------------------------------------------------------------------------
 (0) _main                                                 2     2      0       0
                                              0 COMMON     2     2      0
                  _SYSTEM_Initialize
 ---------------------------------------------------------------------------------
 (1) _SYSTEM_Initialize                                    0     0      0       0
              _OSCILLATOR_Initialize
             _PIN_MANAGER_Initialize
                     _PMD_Initialize
 ---------------------------------------------------------------------------------
 (2) _PMD_Initialize                                       0     0      0       0
 ---------------------------------------------------------------------------------
 (2) _PIN_MANAGER_Initialize                               0     0      0       0
 ---------------------------------------------------------------------------------
 (2) _OSCILLATOR_Initialize                                0     0      0       0
 ---------------------------------------------------------------------------------
 Estimated maximum stack depth 2
 ---------------------------------------------------------------------------------

 Call Graph Graphs:

 _main (ROOT)
   _SYSTEM_Initialize
     _OSCILLATOR_Initialize
     _PIN_MANAGER_Initialize
     _PMD_Initialize

 Address spaces:
Name               Size   Autos  Total    Cost      Usage
BIGRAM             3F0      0       0       0        0.0%
EEDATA             100      0       0       0        0.0%
NULL                 0      0       0       0        0.0%
CODE                 0      0       0       0        0.0%
BITCOMMON            E      0       0       1        0.0%
BITSFR0              0      0       0       1        0.0%
SFR0                 0      0       0       1        0.0%
COMMON               E      2       2       2       14.3%
BITSFR1              0      0       0       2        0.0%
SFR1                 0      0       0       2        0.0%
BITSFR2              0      0       0       3        0.0%
SFR2                 0      0       0       3        0.0%
STACK                0      0       0       3        0.0%
BITBANK0            50      0       0       4        0.0%
BITSFR3              0      0       0       4        0.0%
SFR3                 0      0       0       4        0.0%
BANK0               50      0       0       5        0.0%
BITSFR4              0      0       0       5        0.0%
SFR4                 0      0       0       5        0.0%
BITBANK1            50      0       0       6        0.0%
BITSFR5              0      0       0       6        0.0%
SFR5                 0      0       0       6        0.0%
BANK1               50      0       0       7        0.0%
BITSFR6              0      0       0       7        0.0%
SFR6                 0      0       0       7        0.0%
BITBANK2            50      0       0       8        0.0%
BITSFR7              0      0       0       8        0.0%
SFR7                 0      0       0       8        0.0%
BANK2               50      0       0       9        0.0%
BITSFR8              0      0       0       9        0.0%
SFR8                 0      0       0       9        0.0%
BITBANK3            50      0       0      10        0.0%
BITSFR9              0      0       0      10        0.0%
SFR9                 0      0       0      10        0.0%
BANK3               50      0       0      11        0.0%
BITSFR10             0      0       0      11        0.0%
SFR10                0      0       0      11        0.0%
BITBANK4            50      0       0      12        0.0%
BITSFR11             0      0       0      12        0.0%
SFR11                0      0       0      12        0.0%
BANK4               50      0       0      13        0.0%
BITSFR12             0      0       0      13        0.0%
SFR12                0      0       0      13        0.0%
BITBANK5            50      0       0      14        0.0%
BITSFR13             0      0       0      14        0.0%
SFR13                0      0       0      14        0.0%
BANK5               50      0       0      15        0.0%
BITSFR14             0      0       0      15        0.0%
SFR14                0      0       0      15        0.0%
BITBANK6            50      0       0      16        0.0%
BITSFR15             0      0       0      16        0.0%
SFR15                0      0       0      16        0.0%
BANK6               50      0       0      17        0.0%
BITSFR16             0      0       0      17        0.0%
SFR16                0      0       0      17        0.0%
BITBANK7            50      0       0      18        0.0%
BITSFR17             0      0       0      18        0.0%
SFR17                0      0       0      18        0.0%
BANK7               50      0       0      19        0.0%
BITSFR18             0      0       0      19        0.0%
SFR18                0      0       0      19        0.0%
BITSFR19             0      0       0      20        0.0%
SFR19                0      0       0      20        0.0%
ABS                  0      0       0      20        0.0%
BITBANK8            50      0       0      21        0.0%
BITSFR20             0      0       0      21        0.0%
SFR20                0      0       0      21        0.0%
BANK8               50      0       0      22        0.0%
BITSFR21             0      0       0      22        0.0%
SFR21                0      0       0      22        0.0%
BITBANK9            50      0       0      23        0.0%
BITSFR22             0      0       0      23        0.0%
SFR22                0      0       0      23        0.0%
BANK9               50      0       0      24        0.0%
BITSFR23             0      0       0      24        0.0%
SFR23                0      0       0      24        0.0%
BITBANK10           50      0       0      25        0.0%
BITSFR24             0      0       0      25        0.0%
SFR24                0      0       0      25        0.0%
BANK10              50      0       0      26        0.0%
BITSFR25             0      0       0      26        0.0%
SFR25                0      0       0      26        0.0%
BITBANK11           50      0       0      27        0.0%
BITSFR26             0      0       0      27        0.0%
SFR26                0      0       0      27        0.0%
BANK11              50      0       0      28        0.0%
BITSFR27             0      0       0      28        0.0%
SFR27                0      0       0      28        0.0%
BITBANK12           30      0       0      29        0.0%
BITSFR28             0      0       0      29        0.0%
SFR28                0      0       0      29        0.0%
BANK12              30      0       0      30        0.0%
BITSFR29             0      0       0      30        0.0%
SFR29                0      0       0      30        0.0%
BITSFR30             0      0       0      31        0.0%
SFR30                0      0       0      31        0.0%
DATA                 0      0       0      31        0.0%
BITSFR31             0      0       0      32        0.0%
SFR31                0      0       0      32        0.0%


Microchip Technology PIC Macro Assembler V2.31 build 20201012212115 
Symbol Table                                                                                   Wed Mar 31 20:31:48 2021

                             l31 07A5                               l34 079B                               l37 0792  
                             u10 07BE                               u11 07BB                               u24 07C0  
                             u37 07AE                              l110 07FC                              l801 07B4  
                            l741 07C3                              l751 07D1                              l743 07C9  
                            l761 07DC                              l753 07D3                              l745 07CB  
                            l771 07F0                              l763 07E8                              l755 07D6  
                            l747 07CD                              l739 078B                              l781 07FA  
                            l773 07F2                              l765 07EA                              l757 07D8  
                            l749 07CF                              l783 0793                              l775 07F4  
                            l767 07EC                              l759 07DA                              l791 079C  
                            l785 0796                              l777 07F6                              l769 07EE  
                            l793 079F                              l787 0797                              l779 07F8  
                            l795 07A2                              l789 079A                              l797 07A6  
                            l799 07A9          __size_of_PMD_Initialize 0008                              wreg 0009  
                           _LATA 0016                             _LATB 0017                             _LATC 0018  
                           _LATD 0019                             _LATE 001A                             _PMD0 0796  
                           _PMD1 0797                             _PMD2 0798                             _PMD3 0799  
                           _PMD4 079A                             _PMD5 079B                             _WPUA 0F39  
                           _WPUB 0F44                             _WPUC 0F4F                             _WPUD 0F5A  
                           _WPUE 0F65                             _main 07A6                             btemp 007E  
                           start 0002   __size_of_OSCILLATOR_Initialize 0009    __end_of_OSCILLATOR_Initialize 079C  
                          ?_main 0070                            _OSCEN 0891                            _TRISA 0011  
                          _TRISB 0012                            _TRISC 0013                            _TRISD 0014  
                          _TRISE 0015                            status 0003                            wtemp0 007E  
                __initialization 07FD                     __end_of_main 07C3                           ??_main 0070  
                         _ANSELA 0F38                           _ANSELB 0F43                           _ANSELC 0F4E  
                         _ANSELD 0F59                           _ANSELE 0F64                           _ODCONA 0F3A  
                         _ODCONB 0F45                           _ODCONC 0F50                           _ODCOND 0F5B  
                         _ODCONE 0F66                           _INLVLA 0F3C                           _INLVLB 0F47  
                         _INLVLC 0F52                           _INLVLD 0F5D                           _INLVLE 0F68  
                         _OSCFRQ 0893                   _PMD_Initialize 078B                _SYSTEM_Initialize 079C  
        __end_of__initialization 07FD               ?_SYSTEM_Initialize 0070                   __pcstackCOMMON 0070  
            ??_SYSTEM_Initialize 0070           __end_of_PMD_Initialize 0793        __end_of_SYSTEM_Initialize 07A6  
                     __pmaintext 07A6                  ?_PMD_Initialize 0070                          _OSCCON1 088D  
                        _OSCCON3 088F                          _OSCTUNE 0892                          _SLRCONA 0F3B  
                        _SLRCONB 0F46                          _SLRCONC 0F51                          _SLRCOND 0F5C  
                        _SLRCONE 0F67                          __ptext1 079C                          __ptext2 078B  
                        __ptext3 07C3                          __ptext4 0793            _OSCILLATOR_Initialize 0793  
       ??_PIN_MANAGER_Initialize 0070       __size_of_SYSTEM_Initialize 000A             end_of_initialization 07FD  
         ?_OSCILLATOR_Initialize 0070              start_initialization 07FD  __size_of_PIN_MANAGER_Initialize 003A  
               ??_PMD_Initialize 0070                        ___latbits 0002           _PIN_MANAGER_Initialize 07C3  
                       _LATDbits 0019          ??_OSCILLATOR_Initialize 0070                    __size_of_main 001D  
        ?_PIN_MANAGER_Initialize 0070   __end_of_PIN_MANAGER_Initialize 07FD  
